
8aaaf200-2450-11e4-abe20002a5d5c51b.elf：     文件格式 elf32-littlearm
8aaaf200-2450-11e4-abe20002a5d5c51b.elf
体系结构：arm，标志 0x00000150：
HAS_SYMS, DYNAMIC, D_PAGED
起始地址 0x00000020

Program Header:
    LOAD off    0x00010000 vaddr 0x00000000 paddr 0x00000000 align 2**16
         filesz 0x00005210 memsz 0x00005210 flags r-x
    LOAD off    0x00015210 vaddr 0x00005210 paddr 0x00005210 align 2**16
         filesz 0x00001984 memsz 0x00001984 flags r--
    LOAD off    0x00017000 vaddr 0x00007000 paddr 0x00007000 align 2**16
         filesz 0x00000090 memsz 0x0000abea flags rw-
 DYNAMIC off    0x000169e0 vaddr 0x000069e0 paddr 0x000069e0 align 2**2
         filesz 0x00000078 memsz 0x00000078 flags rw-

Dynamic Section:
  HASH                 0x00006b58
  STRTAB               0x00006af8
  SYMTAB               0x00006a58
  STRSZ                0x0000005f
  SYMENT               0x00000010
  DEBUG                0x00000000
  REL                  0x000068f0
  RELSZ                0x000000f0
  RELENT               0x00000008
  RELCOUNT             0x00000017
private flags = 5000402: [Version5 EABI] [hard-float ABI] [has entry point]

节：
Idx Name          Size      VMA       LMA       File off  Algn
  0 .ta_head      00000020  00000000  00000000  00010000  2**3
                  CONTENTS, ALLOC, LOAD, DATA
  1 .text         000051f0  00000020  00000020  00010020  2**3
                  CONTENTS, ALLOC, LOAD, READONLY, CODE
  2 .rodata       000016b6  00005210  00005210  00015210  2**2
                  CONTENTS, ALLOC, LOAD, READONLY, DATA
  3 .got          00000028  000068c8  000068c8  000168c8  2**2
                  CONTENTS, ALLOC, LOAD, DATA
  4 .dynsym       000000a0  00006a58  00006a58  00016a58  2**2
                  CONTENTS, ALLOC, LOAD, READONLY, DATA
  5 .rel.got      00000038  000069a8  000069a8  000169a8  2**2
                  CONTENTS, ALLOC, LOAD, READONLY, DATA
  6 .dynamic      00000078  000069e0  000069e0  000169e0  2**2
                  CONTENTS, ALLOC, LOAD, DATA
  7 .dynstr       0000005f  00006af8  00006af8  00016af8  2**0
                  CONTENTS, ALLOC, LOAD, READONLY, DATA
  8 .hash         0000003c  00006b58  00006b58  00016b58  2**2
                  CONTENTS, ALLOC, LOAD, READONLY, DATA
  9 .data         00000090  00007000  00007000  00017000  2**2
                  CONTENTS, ALLOC, LOAD, DATA
 10 .bss          0000ab5a  00007090  00007090  00017090  2**2
                  ALLOC
 11 .debug_info   0000ea48  00000000  00000000  00017090  2**0
                  CONTENTS, READONLY, DEBUGGING
 12 .debug_abbrev 00004314  00000000  00000000  00025ad8  2**0
                  CONTENTS, READONLY, DEBUGGING
 13 .debug_loc    0000a90c  00000000  00000000  00029dec  2**0
                  CONTENTS, READONLY, DEBUGGING
 14 .debug_aranges 000004c8  00000000  00000000  000346f8  2**0
                  CONTENTS, READONLY, DEBUGGING
 15 .debug_macro  00004ae6  00000000  00000000  00034bc0  2**0
                  CONTENTS, READONLY, DEBUGGING
 16 .debug_line   0000599e  00000000  00000000  000396a6  2**0
                  CONTENTS, READONLY, DEBUGGING
 17 .debug_str    0000f642  00000000  00000000  0003f044  2**0
                  CONTENTS, READONLY, DEBUGGING
 18 .comment      00000063  00000000  00000000  0004e686  2**0
                  CONTENTS, READONLY
 19 .ARM.attributes 0000003a  00000000  00000000  0004e6e9  2**0
                  CONTENTS, READONLY
 20 .debug_frame  000018ec  00000000  00000000  0004e724  2**2
                  CONTENTS, READONLY, DEBUGGING
 21 .rel.dyn      000000b8  000068f0  000068f0  000168f0  2**2
                  CONTENTS, ALLOC, LOAD, READONLY, DATA
 22 .debug_ranges 00000520  00000000  00000000  00050010  2**0
                  CONTENTS, READONLY, DEBUGGING
SYMBOL TABLE:
00000000 l    d  .ta_head	00000000 .ta_head
00000020 l    d  .text	00000000 .text
00005210 l    d  .rodata	00000000 .rodata
000068c8 l    d  .got	00000000 .got
000069a8 l    d  .rel.got	00000000 .rel.got
000069e0 l    d  .dynamic	00000000 .dynamic
00006a58 l    d  .dynsym	00000000 .dynsym
00006af8 l    d  .dynstr	00000000 .dynstr
00006b58 l    d  .hash	00000000 .hash
00007000 l    d  .data	00000000 .data
00007090 l    d  .bss	00000000 .bss
00000000 l    d  .debug_info	00000000 .debug_info
00000000 l    d  .debug_abbrev	00000000 .debug_abbrev
00000000 l    d  .debug_loc	00000000 .debug_loc
00000000 l    d  .debug_aranges	00000000 .debug_aranges
00000000 l    d  .debug_macro	00000000 .debug_macro
00000000 l    d  .debug_line	00000000 .debug_line
00000000 l    d  .debug_str	00000000 .debug_str
00000000 l    d  .comment	00000000 .comment
00000000 l    d  .ARM.attributes	00000000 .ARM.attributes
00000000 l    d  .debug_frame	00000000 .debug_frame
000068f0 l    d  .rel.dyn	00000000 .rel.dyn
00000000 l    d  .debug_ranges	00000000 .debug_ranges
00000000 l    df *ABS*	00000000 user_ta_header.c
00005214 l     O .rodata	00000004 __compound_literal.5
00005218 l     O .rodata	00000004 __compound_literal.4
0000521c l     O .rodata	00000004 __compound_literal.3
00005220 l     O .rodata	00000001 __compound_literal.2
00005221 l     O .rodata	00000001 __compound_literal.1
00005222 l     O .rodata	00000001 __compound_literal.0
00000000 l    df *ABS*	00000000 hello_world_ta.c
00005f88 l     O .rodata	00000019 __func__.4847
00005fa1 l     O .rodata	0000001a __func__.4851
00000000 l    df *ABS*	00000000 user_ta_entry.c
00000098 l     F .text	0000001c ta_header_get_session
000000b4 l     F .text	00000054 ta_header_remove_session
00000108 l     F .text	00000014 ta_header_save_params.part.0
000060b0 l     O .rodata	0000000d __func__.5350
00007070 l     O .data	00000008 ta_sessions
00007090 l     O .bss	00000004 ta_ref_count
000070b4 l     O .bss	00000001 context_init
00000000 l    df *ABS*	00000000 utee_syscalls_a32.o
00000000 l    df *ABS*	00000000 tee_api_arith.c
00000d30 l     F .text	0000003c TEE_BigInt_Panic
000060c8 l     O .rodata	00000011 __func__.5138
000060d9 l     O .rodata	0000001f __func__.5183
000070bc l     O .bss	00001b00 mempool_u32
00000000 l    df *ABS*	00000000 tee_api.c
00006153 l     O .rodata	00000013 __func__.5320
00006166 l     O .rodata	00000014 __func__.5332
0000617a l     O .rodata	00000017 __func__.5343
00006191 l     O .rodata	00000015 __func__.5349
000061a6 l     O .rodata	00000012 __func__.5382
000061b8 l     O .rodata	00000009 __func__.5387
000061c1 l     O .rodata	00000018 __func__.5392
000061d9 l     O .rodata	00000018 __func__.5397
000061f1 l     O .rodata	0000000f __func__.5402
00008bbc l     O .bss	00000004 tee_api_instance_data
00000000 l    df *ABS*	00000000 tee_user_mem.c
00001168 l     F .text	00000034 print_buf
0000119c l     F .text	000000a8 check_elem
00006200 l     O .rodata	0000000b __func__.4957
0000620b l     O .rodata	0000000f __func__.4952
0000621a l     O .rodata	00000013 __func__.4976
0000622d l     O .rodata	00000012 __func__.4993
0000623f l     O .rodata	00000018 __func__.5001
00006257 l     O .rodata	00000014 __func__.5006
00008bc0 l     O .bss	00000004 heap_level
00008bc4 l     O .bss	00000008 global_stats
00000000 l    df *ABS*	00000000 trace_ext.c
00006367 l     O .rodata	0000000a prefix.4681
00006371 l     O .rodata	00000011 failed.4682
00000000 l    df *ABS*	00000000 assert.c
00006387 l     O .rodata	0000000c __func__.5148
00000000 l    df *ABS*	00000000 bget_malloc.c
0000165c l     F .text	00000014 raw_malloc_save_max_alloced_size
00001670 l     F .text	000000b0 create_free_block
00007080 l     O .data	00000010 freelist
00008bcc l     O .bss	00000004 totalloc
00008bd0 l     O .bss	00000004 max_alloc_heap
00008bd4 l     O .bss	00000004 numget
00008bd8 l     O .bss	00000004 numrel
00008bdc l     O .bss	00000004 malloc_pool_len
00008be0 l     O .bss	00000004 malloc_pool
00000000 l    df *ABS*	00000000 snprintk.c
00006775 l     O .rodata	00000011 HEXDIGITS
00006786 l     O .rodata	00000011 hexdigits
00000000 l    df *ABS*	00000000 trace.c
00002754 l     F .text	0000004e append
000067ce l     O .rodata	0000002d lvl_strs.4251
000067fb l     O .rodata	0000000a __func__.4296
00000000 l    df *ABS*	00000000 arm32_aeabi_ldivmod_a32.o
00000000 l    df *ABS*	00000000 mpa_misc.c
00000000 l    df *ABS*	00000000 mpa_montgomery.c
00000000 l    df *ABS*	00000000 mpa_primetest.c
00005e90 l     O .rodata	00000008 const_miller_rabin_proof_limit
00005ea0 l     O .rodata	0000001c proof_a.4624
00005ebc l     O .rodata	00000008 const_two
00005ec8 l     O .rodata	00000008 const_small_prime_factors
00000000 l    df *ABS*	00000000 mpa_random.c
00008be4 l     O .bss	00000004 get_rng_array
00000000 l    df *ABS*	00000000 mpa_expmod.c
00000000 l    df *ABS*	00000000 mpa_io.c
000031b4 l     F .text	00000028 __mpa_word_to_hexstr
000031dc l     F .text	000000ac __mpa_mpanum_to_hexstr
00003288 l     F .text	0000001c __mpa_isspace
00010be8 l     O .bss	00001002 buf.4661
00000000 l    df *ABS*	00000000 tee_api_panic.c
00000000 l    df *ABS*	00000000 utee_misc.c
00000000 l    df *ABS*	00000000 snprintf.c
00000000 l    df *ABS*	00000000 memcmp.c
00000000 l    df *ABS*	00000000 memcpy.c
00000000 l    df *ABS*	00000000 memmove.c
00000000 l    df *ABS*	00000000 memset.c
00000000 l    df *ABS*	00000000 strlen.c
00000000 l    df *ABS*	00000000 strlcpy.c
00000000 l    df *ABS*	00000000 memchr.c
00000000 l    df *ABS*	00000000 arm32_aeabi_ldivmod.c
00000000 l    df *ABS*	00000000 mpa_conv.c
00000000 l    df *ABS*	00000000 mpa_div.c
00000000 l    df *ABS*	00000000 mpa_gcd.c
00003eac l     F .text	0000004c __mpa_divby2
00003ef8 l     F .text	000000e6 __mpa_gcd.part.0
00003fde l     F .text	00000236 __mpa_egcd
00000000 l    df *ABS*	00000000 mpa_mem_static.c
00000000 l    df *ABS*	00000000 mpa_mul.c
00000000 l    df *ABS*	00000000 mpa_shift.c
00000000 l    df *ABS*	00000000 mpa_addsub.c
00000000 l    df *ABS*	00000000 mpa_cmp.c
00000000 l    df *ABS*	00000000 mpa_init.c
00000000 l    df *ABS*	00000000 mpa_modulus.c
00000000 l    df *ABS*	00000000 
000069e0 l     O *ABS*	00000000 _DYNAMIC
000068c8 l     O *ABS*	00000000 _GLOBAL_OFFSET_TABLE_
000051d0 l     F .text	00000010 __utee_cache_operation_from_thumb
000051e0 l     F .text	00000010 __utee_cryp_random_number_generate_from_thumb
000051f0 l     F .text	00000010 __utee_log_from_thumb
00005200 l     F .text	00000010 __utee_check_access_rights_from_thumb
00000870 g     F .text	00000018 utee_se_channel_transmit
00004ffc g     F .text	00000012 mpa_init_static
00002a7c g     F .text	00000022 mpa_copy
00000ca4 g     F .text	00000020 TEE_BigIntConvertToFMM
00000be0 g     F .text	00000008 TEE_BigIntSquareMod
000009bc g     F .text	00000004 TEE_BigIntShiftRight
000038a6 g     F .text	00000042 mpa_get_S32
00002ab2 g     F .text	0000002c mpa_highest_bit_index
00000660 g     F .text	00000018 utee_storage_obj_create
000037ba g     F .text	000000d0 __l_divmod
00000834 g     F .text	00000014 utee_se_session_close
000002e0 g     F .text	00000014 utee_return
00001b64 g     F .text	00000010 malloc_reset_max_allocated
00000790 g     F .text	00000014 utee_se_service_get_readers
0000114c g     F .text	00000004 TEE_Realloc
0000395a g     F .text	000000be __mpa_div_q_r_internal_word
000013f4 g     F .text	00000068 tee_user_mem_realloc
00001b8c g     F .text	00000024 malloc_get_heap_size
00004c3e g     F .text	00000106 mpa_sub
000015a8 g     F .text	0000007c printf
00001310 g     F .text	000000e4 tee_user_mem_free
000002f4 g     F .text	00000014 utee_log
00005f80 g     O .rodata	00000004 NR_STORED_PRIMES
00000e88 g     F .text	00000084 TEE_InvokeTACommand
00002b08 g     F .text	00000014 mpa_can_hold
000044f8 g     F .text	00000056 __mpa_abs_mul_word
00002d68 g     F .text	0000003c mpa_montgomery_mul
0000272c g     F .text	0000000e vsnprintk
00002b1c g     F .text	00000008 mpa_parity
000036ac g     F .text	00000036 memmove
00004978 g     F .text	0000001a __mpa_full_adder_ackum
0000364a g     F .text	0000001e snprintf
000009b8 g     F .text	00000004 TEE_BigIntCmpS32
000009d8 g     F .text	0000000c TEE_BigIntAdd
00000334 g     F .text	00000014 utee_get_property_name_to_index
00005224 g     O .rodata	00000004 ta_heap_size
00005f84 g     O .rodata	00000004 MAX_TABULATED_PRIME
00003630 g     F .text	00000004 utee_malloc
00000418 g     F .text	00000018 utee_cryp_state_alloc
000005e8 g     F .text	00000018 utee_authenc_enc_final
000044e0 g     F .text	00000018 __mpa_mul_add_word_cum
000009f0 g     F .text	00000004 TEE_BigIntNeg
00003e1e g     F .text	0000008e mpa_div
00005230 g     O .rodata	00000008 const_one
00001f84 g     F .text	00000040 malloc_buffer_overlaps_heap
00004f54 g     F .text	0000000a __mpa_abs_less_than
00000b04 g     F .text	00000060 TEE_BigIntSubMod
00003024 g     F .text	000000a4 mpa_get_random
00003646 g     F .text	00000004 get_rng_array
000027d4 g     F .text	00000138 trace_printf
00000768 g     F .text	00000014 utee_se_service_open
00003696 g     F .text	00000016 memcpy
00000444 g     F .text	00000014 utee_cryp_state_free
00002a66 g     F .text	00000016 mpa_wipe
00000cc4 g     F .text	00000050 TEE_BigIntConvertFromFMM
00003626 g     F .text	00000006 TEE_Panic
0000085c g     F .text	00000014 utee_se_channel_get_select_resp
00002a34 g     F .text	00000018 __aeabi_uldivmod
00001592 g     F .text	00000016 puts
00000d14 g     F .text	0000001c TEE_BigIntComputeFMM
000038e8 g     F .text	0000000c mpa_set_word
0000476c g     F .text	000000fe mpa_shift_left
000004c4 g     F .text	00000018 utee_cipher_final
000045e2 g     F .text	00000084 mpa_mul
00001108 g     F .text	00000040 TEE_GetREETime
00007004 g     O .data	0000006c ta_props
00001bb0 g     F .text	00000016 malloc
0000052c g     F .text	00000014 utee_cryp_obj_close
000007cc g     F .text	00000014 utee_se_reader_open_session
00003668 g     F .text	0000000e vsnprintf
00007000 g     O .data	00000004 trace_level
0000362c g     F .text	00000004 utee_get_ta_exec_id
000009b4 g     F .text	00000004 TEE_BigIntCmp
00003634 g     F .text	00000004 utee_realloc
00005210 g     O .rodata	00000004 ta_num_props
00001a20 g     F .text	00000054 bgetr
000005d0 g     F .text	00000018 utee_authenc_update_payload
00000944 g     F .text	00000058 TEE_BigIntConvertToOctetString
0000089c g     F .text	00000014 utee_cache_operation
000005a4 g     F .text	00000018 utee_authenc_init
000009c0 g     F .text	0000000e TEE_BigIntGetBit
00005228 g     O .rodata	00000008 trace_ext_prefix
00004992 g     F .text	000000ac __mpa_abs_add
00001838 g     F .text	0000004c bgetz
00000fc0 g     F .text	0000000c TEE_GetInstanceData
00001018 g     F .text	00000044 TEE_Wait
00000718 g     F .text	00000014 utee_storage_obj_write
000044a2 g     F .text	0000002e mpa_free_static_temp_var
00001b80 g     F .text	0000000c malloc_get_allocated
00002da4 g     F .text	00000274 mpa_is_prob_prime
00000888 g     F .text	00000014 utee_se_channel_close
00004666 g     F .text	0000006e mpa_mul_word
0000115a g     F .text	00000006 TEE_CacheFlush
00000024 g     F .text	00000002 TA_DestroyEntryPoint
00001624 g     F .text	0000002c _assert_log
00000924 g     F .text	0000000a TEE_BigIntFMMContextSizeInU32
00003a18 g     F .text	00000406 __mpa_div_q_r
000008b0 g     F .text	00000034 _TEE_MathAPI_Init
000006f0 g     F .text	00000014 utee_storage_next_enum
00008be8 g     O .bss	00008000 ta_heap
00000be8 g     F .text	00000044 TEE_BigIntInvMod
00000058 g     F .text	00000028 TA_CloseSessionEntryPoint
00000430 g     F .text	00000014 utee_cryp_state_copy
00000080 g     F .text	00000018 TA_InvokeCommandEntryPoint
000034b0 g     F .text	0000009a mpa_set_oct_str
0000081c g     F .text	00000018 utee_se_session_open_channel
000046d4 g     F .text	00000052 __mpa_shift_words_left
00000518 g     F .text	00000014 utee_cryp_obj_alloc
00000404 g     F .text	00000014 utee_set_ta_time
00000504 g     F .text	00000014 utee_cryp_obj_get_attr
00002b8e g     F .text	0000005c __mpa_montgomery_sub_ack
00001bce g     F .text	00000028 calloc
00001148 g     F .text	00000004 TEE_Malloc
000003c8 g     F .text	00000014 utee_mask_cancellation
00000540 g     F .text	00000014 utee_cryp_obj_reset
00000fa8 g     F .text	0000000a TEE_CheckMemoryAccessRights
00003748 g     F .text	00000072 __ul_divmod
00004d44 g     F .text	00000010 mpa_neg
00005258 g     O .rodata	00000c38 PRIME_TABLE
00000026 g     F .text	00000032 TA_OpenSessionEntryPoint
00004214 g     F .text	000000a8 mpa_gcd
00002a9e g     F .text	00000014 mpa_abs
000006dc g     F .text	00000014 utee_storage_start_enum
000032aa g     F .text	000001be mpa_set_str
0000068c g     F .text	00000014 utee_storage_obj_rename
000070b8 g     O .bss	00000004 ta_param_types
00000c84 g     F .text	00000020 TEE_BigIntIsProbablePrime
00004498 g     F .text	0000000a mpa_alloc_static_temp_var
00003018 g     F .text	0000000c mpa_set_random_generator
0000031c g     F .text	00000018 utee_get_property
000008e4 g     F .text	00000004 TEE_BigIntInit
00000fcc g     F .text	00000004 TEE_MemMove
0000092e g     F .text	00000016 TEE_BigIntConvertFromOctetString
0000372c g     F .text	0000001c memchr
00000f28 g     F .text	00000040 TEE_UnmaskCancellation
000050e0 g     F .text	00000042 mpa_mul_mod
00000678 g     F .text	00000014 utee_storage_obj_del
00000740 g     F .text	00000014 utee_storage_obj_seek
00002c98 g     F .text	000000d0 mpa_compute_fmm_context
0000046c g     F .text	00000014 utee_hash_update
000043fa g     F .text	00000016 mpa_init_scratch_mem_sync
00000a4c g     F .text	00000058 TEE_BigIntMod
00000848 g     F .text	00000014 utee_se_channel_select_next
00000360 g     F .text	00000014 utee_close_ta_session
00000a10 g     F .text	0000003c TEE_BigIntDiv
00003702 g     F .text	0000002a strlcpy
000004ac g     F .text	00000018 utee_cipher_update
00000808 g     F .text	00000014 utee_se_session_get_atr
00001bf6 g     F .text	00000016 realloc
00004a3e g     F .text	00000076 __mpa_abs_add_ackum
00000630 g     F .text	00000018 utee_asymm_verify
000009f4 g     F .text	0000000c TEE_BigIntMul
000038f4 g     F .text	0000000c mpa_get_word
00000fd4 g     F .text	00000004 TEE_MemFill
00003676 g     F .text	00000020 memcmp
00001e40 g     F .text	0000008c malloc_add_pool
000027c0 g     F .text	00000014 trace_get_level
00000590 g     F .text	00000014 utee_cryp_random_number_generate
0000091c g     F .text	00000008 TEE_BigIntFMMSizeInU32
000008e8 g     F .text	0000000e TEE_BigIntInitFMM
00000618 g     F .text	00000018 utee_asymm_operate
0000011c g     F .text	000001c4 __utee_entry
00000c2c g     F .text	00000040 TEE_BigIntRelativePrime
00001a74 g     F .text	00000088 bpool
0000388a g     F .text	0000001c mpa_set_S32
0000500e g     F .text	00000038 mpa_init_static_fmm_context
00000f0c g     F .text	0000001c TEE_GetCancellationFlag
0000077c g     F .text	00000014 utee_se_service_close
00001244 g     F .text	000000cc tee_user_mem_alloc
00007078 g     O .data	00000008 user_mem_head
000010bc g     F .text	0000004c TEE_SetTAPersistentTime
00004d54 g     F .text	000000c8 mpa_add_word
000007a4 g     F .text	00000014 utee_se_reader_get_prop
000036e2 g     F .text	00000010 memset
0000105c g     F .text	00000060 TEE_GetTAPersistentTime
0000290c g     F .text	00000110 dhex_dump
00000f68 g     F .text	00000040 TEE_MaskCancellation
00004960 g     F .text	00000018 __mpa_full_sub
00000704 g     F .text	00000014 utee_storage_obj_read
00003638 g     F .text	0000000a utee_calloc
00000554 g     F .text	00000014 utee_cryp_obj_populate
00004f5e g     F .text	00000046 mpa_cmp
00005122 g     F .text	000000aa mpa_inv_mod
00004e1c g     F .text	000000d2 mpa_sub_word
000044d0 g     F .text	00000010 __mpa_mul_add_word
00004b48 g     F .text	000000f6 mpa_add
000030c8 g     F .text	000000ec mpa_exp_mod
00004726 g     F .text	00000046 __mpa_shift_words_right
000027a2 g     F .text	0000001e trace_set_level
000007f4 g     F .text	00000014 utee_se_session_is_closed
000004dc g     F .text	00000014 utee_cryp_obj_get_info
000006a0 g     F .text	00000014 utee_storage_alloc_enum
000006c8 g     F .text	00000014 utee_storage_reset_enum
0000072c g     F .text	00000014 utee_storage_obj_trunc
00005046 g     F .text	00000016 mpa_mod
00004f44 g     F .text	00000010 __mpa_abs_greater_than
000009a0 g     F .text	00000014 TEE_BigIntConvertToS32
000009e4 g     F .text	0000000c TEE_BigIntSub
0000038c g     F .text	00000014 utee_get_cancellation_flag
00000458 g     F .text	00000014 utee_hash_init
0000361c g     F .text	00000004 tahead_get_trace_level
00000d6c g     F .text	0000005a __utee_from_param
0000523c g     O .rodata	00000008 Const_1_LShift_Base
00000dc6 g     F .text	00000042 __utee_to_param
00001c0c g     F .text	00000234 memalign
0000099c g     F .text	00000004 TEE_BigIntConvertFromS32
0000509e g     F .text	00000042 mpa_sub_mod
000004f0 g     F .text	00000014 utee_cryp_obj_restrict_usage
00001ecc g     F .text	000000b8 malloc_buffer_is_within_alloced
00000568 g     F .text	00000014 utee_cryp_obj_copy
0000486a g     F .text	000000d4 mpa_shift_right
000008f6 g     F .text	00000026 TEE_BigIntInitFMMContext
0000057c g     F .text	00000014 utee_cryp_derive_key
00002bea g     F .text	000000ae __mpa_montgomery_mul
0000354a g     F .text	000000d0 mpa_get_oct_str
00004fa4 g     F .text	00000058 mpa_cmp_short
00000600 g     F .text	00000018 utee_authenc_dec_final
00004eee g     F .text	00000056 __mpa_abs_cmp
00000a00 g     F .text	00000010 TEE_BigIntSquare
00000020 g     F .text	00000004 TA_CreateEntryPoint
0000273a g     F .text	0000001a snprintk
000009ce g     F .text	0000000a TEE_BigIntGetBitCount
00000b64 g     F .text	0000007c TEE_BigIntMulMod
00003620 g     F .text	00000006 __TEE_Panic
00007094 g     O .bss	00000020 ta_params
0000454e g     F .text	00000094 __mpa_abs_mul
00001720 g     F .text	00000118 bget
00001150 g     F .text	00000004 TEE_Free
000007b8 g     F .text	00000014 utee_se_reader_get_name
00001160 g     F .text	00000006 TEE_CacheInvalidate
00000498 g     F .text	00000014 utee_cipher_init
00001650 g     F .text	0000000c _assert_break
00000aa4 g     F .text	00000060 TEE_BigIntAddMod
000006b4 g     F .text	00000014 utee_storage_free_enum
000005bc g     F .text	00000014 utee_authenc_update_aad
00002ade g     F .text	0000002a mpa_get_bit
00004410 g     F .text	00000012 mpa_init_scratch_mem
00000fd0 g     F .text	00000004 TEE_MemCompare
00001fc4 g     F .text	00000768 __vsnprintf
00000e08 g     F .text	00000044 TEE_OpenTASession
00000308 g     F .text	00000014 utee_panic
00001578 g     F .text	00000014 trace_ext_puts
000014dc g     F .text	0000009c tee_user_mem_garbage
0000158c g     F .text	00000006 trace_ext_get_thread_id
00001154 g     F .text	00000006 TEE_CacheClean
00000348 g     F .text	00000018 utee_open_ta_session
00003900 g     F .text	0000005a __mpa_div_dword
00002a4c g     F .text	0000001a __mpa_set_unused_digits_to_zero
0000524c g     O .rodata	00000008 const_largest_deci_base
000032a4 g     F .text	00000006 mpa_get_str_size
0000146c g     F .text	00000070 tee_user_mem_check_heap
00000480 g     F .text	00000018 utee_hash_final
000036f2 g     F .text	00000010 strlen
00000c6c g     F .text	00000018 TEE_BigIntComputeExtendedGcd
000042bc g     F .text	0000013e mpa_extended_gcd
0000505c g     F .text	00000042 mpa_add_mod
00000648 g     F .text	00000018 utee_storage_obj_open
00000374 g     F .text	00000018 utee_invoke_ta_command
00003468 g     F .text	00000048 mpa_get_str
000003dc g     F .text	00000014 utee_wait
00003642 g     F .text	00000004 utee_free
0000145c g     F .text	00000010 tee_user_mem_mark_heap
00000fd8 g     F .text	00000040 TEE_GetSystemTime
00000000 g     O .ta_head	00000020 ta_head
00001884 g     F .text	0000019c brel
00004422 g     F .text	00000076 mpa_alloc_static_temp_var_size
000003f0 g     F .text	00000014 utee_get_time
00002b30 g     F .text	0000005e __mpa_montgomery_mul_add
00000fb2 g     F .text	0000000e TEE_SetInstanceData
000003b4 g     F .text	00000014 utee_unmask_cancellation
00002a1c g     F .text	00000000 __aeabi_ldivmod
000003a0 g     F .text	00000014 utee_check_access_rights
000007e0 g     F .text	00000014 utee_se_reader_close_sessions
00000754 g     F .text	00000014 utee_cryp_obj_generate_key
00000e4c g     F .text	0000003c TEE_CloseTASession
00002b24 g     F .text	0000000c mpa_constant_one
00001b74 g     F .text	0000000c malloc_get_max_allocated
0000493e g     F .text	00000022 __mpa_full_adder
00004ab4 g     F .text	00000094 __mpa_abs_sub
00001bc6 g     F .text	00000008 free
00001afc g     F .text	00000068 bstats



Disassembly of section .text:

00000020 <TA_CreateEntryPoint>:
TA_CreateEntryPoint():
/root/devel/optee/optee_helloworld/ta/hello_world_ta.c:42
      20:	2000      	movs	r0, #0
      22:	4770      	bx	lr

00000024 <TA_DestroyEntryPoint>:
TA_DestroyEntryPoint():
/root/devel/optee/optee_helloworld/ta/hello_world_ta.c:49
      24:	4770      	bx	lr

00000026 <TA_OpenSessionEntryPoint>:
TA_OpenSessionEntryPoint():
/root/devel/optee/optee_helloworld/ta/hello_world_ta.c:59
      26:	b513      	push	{r0, r1, r4, lr}
/root/devel/optee/optee_helloworld/ta/hello_world_ta.c:64
      28:	4604      	mov	r4, r0
      2a:	b958      	cbnz	r0, 44 <TA_OpenSessionEntryPoint+0x1e>
/root/devel/optee/optee_helloworld/ta/hello_world_ta.c:75
      2c:	4b08      	ldr	r3, [pc, #32]	; (50 <TA_OpenSessionEntryPoint+0x2a>)
      2e:	2202      	movs	r2, #2
      30:	214b      	movs	r1, #75	; 0x4b
      32:	4808      	ldr	r0, [pc, #32]	; (54 <TA_OpenSessionEntryPoint+0x2e>)
      34:	447b      	add	r3, pc
      36:	4478      	add	r0, pc
      38:	9300      	str	r3, [sp, #0]
      3a:	2301      	movs	r3, #1
      3c:	f002 fbca 	bl	27d4 <trace_printf>
/root/devel/optee/optee_helloworld/ta/hello_world_ta.c:77
      40:	4620      	mov	r0, r4
      42:	e000      	b.n	46 <TA_OpenSessionEntryPoint+0x20>
/root/devel/optee/optee_helloworld/ta/hello_world_ta.c:65
      44:	4801      	ldr	r0, [pc, #4]	; (4c <TA_OpenSessionEntryPoint+0x26>)
/root/devel/optee/optee_helloworld/ta/hello_world_ta.c:78
      46:	b002      	add	sp, #8
      48:	bd10      	pop	{r4, pc}
      4a:	bf00      	nop
      4c:	ffff0006 	.word	0xffff0006
      50:	00005f83 	.word	0x00005f83
      54:	00005f4e 	.word	0x00005f4e

00000058 <TA_CloseSessionEntryPoint>:
TA_CloseSessionEntryPoint():
/root/devel/optee/optee_helloworld/ta/hello_world_ta.c:87
      58:	4b07      	ldr	r3, [pc, #28]	; (78 <TA_CloseSessionEntryPoint+0x20>)
/root/devel/optee/optee_helloworld/ta/hello_world_ta.c:85
      5a:	b507      	push	{r0, r1, r2, lr}
/root/devel/optee/optee_helloworld/ta/hello_world_ta.c:87
      5c:	2202      	movs	r2, #2
      5e:	4807      	ldr	r0, [pc, #28]	; (7c <TA_CloseSessionEntryPoint+0x24>)
      60:	2157      	movs	r1, #87	; 0x57
      62:	447b      	add	r3, pc
      64:	4478      	add	r0, pc
      66:	9300      	str	r3, [sp, #0]
      68:	2301      	movs	r3, #1
      6a:	3019      	adds	r0, #25
      6c:	f002 fbb2 	bl	27d4 <trace_printf>
/root/devel/optee/optee_helloworld/ta/hello_world_ta.c:88
      70:	b003      	add	sp, #12
      72:	f85d fb04 	ldr.w	pc, [sp], #4
      76:	bf00      	nop
      78:	00005f63 	.word	0x00005f63
      7c:	00005f20 	.word	0x00005f20

00000080 <TA_InvokeCommandEntryPoint>:
TA_InvokeCommandEntryPoint():
/root/devel/optee/optee_helloworld/ta/hello_world_ta.c:114
      80:	b931      	cbnz	r1, 90 <TA_InvokeCommandEntryPoint+0x10>
inc_value():
/root/devel/optee/optee_helloworld/ta/hello_world_ta.c:97
      82:	2a03      	cmp	r2, #3
      84:	d104      	bne.n	90 <TA_InvokeCommandEntryPoint+0x10>
/root/devel/optee/optee_helloworld/ta/hello_world_ta.c:100
      86:	681a      	ldr	r2, [r3, #0]
/root/devel/optee/optee_helloworld/ta/hello_world_ta.c:101
      88:	4608      	mov	r0, r1
/root/devel/optee/optee_helloworld/ta/hello_world_ta.c:100
      8a:	3201      	adds	r2, #1
      8c:	601a      	str	r2, [r3, #0]
      8e:	4770      	bx	lr
/root/devel/optee/optee_helloworld/ta/hello_world_ta.c:98
      90:	4800      	ldr	r0, [pc, #0]	; (94 <TA_InvokeCommandEntryPoint+0x14>)
TA_InvokeCommandEntryPoint():
/root/devel/optee/optee_helloworld/ta/hello_world_ta.c:120
      92:	4770      	bx	lr
      94:	ffff0006 	.word	0xffff0006

00000098 <ta_header_get_session>:
ta_header_get_session():
/root/devel/optee/optee_os/lib/libutee/arch/arm/user_ta_entry.c:75
      98:	4b05      	ldr	r3, [pc, #20]	; (b0 <ta_header_get_session+0x18>)
      9a:	447b      	add	r3, pc
      9c:	681b      	ldr	r3, [r3, #0]
/root/devel/optee/optee_os/lib/libutee/arch/arm/user_ta_entry.c:75 (discriminator 1)
      9e:	b123      	cbz	r3, aa <ta_header_get_session+0x12>
/root/devel/optee/optee_os/lib/libutee/arch/arm/user_ta_entry.c:76
      a0:	681a      	ldr	r2, [r3, #0]
      a2:	4282      	cmp	r2, r0
      a4:	d001      	beq.n	aa <ta_header_get_session+0x12>
/root/devel/optee/optee_os/lib/libutee/arch/arm/user_ta_entry.c:75 (discriminator 2)
      a6:	689b      	ldr	r3, [r3, #8]
      a8:	e7f9      	b.n	9e <ta_header_get_session+0x6>
/root/devel/optee/optee_os/lib/libutee/arch/arm/user_ta_entry.c:80
      aa:	4618      	mov	r0, r3
      ac:	4770      	bx	lr
      ae:	bf00      	nop
      b0:	00006fd2 	.word	0x00006fd2

000000b4 <ta_header_remove_session>:
ta_header_remove_session():
/root/devel/optee/optee_os/lib/libutee/arch/arm/user_ta_entry.c:118
      b4:	b508      	push	{r3, lr}
/root/devel/optee/optee_os/lib/libutee/arch/arm/user_ta_entry.c:121
      b6:	4b11      	ldr	r3, [pc, #68]	; (fc <ta_header_remove_session+0x48>)
      b8:	447b      	add	r3, pc
      ba:	681b      	ldr	r3, [r3, #0]
/root/devel/optee/optee_os/lib/libutee/arch/arm/user_ta_entry.c:121 (discriminator 1)
      bc:	b1e3      	cbz	r3, f8 <ta_header_remove_session+0x44>
/root/devel/optee/optee_os/lib/libutee/arch/arm/user_ta_entry.c:122
      be:	681a      	ldr	r2, [r3, #0]
      c0:	4282      	cmp	r2, r0
      c2:	d117      	bne.n	f4 <ta_header_remove_session+0x40>
/root/devel/optee/optee_os/lib/libutee/arch/arm/user_ta_entry.c:123
      c4:	689a      	ldr	r2, [r3, #8]
      c6:	b112      	cbz	r2, ce <ta_header_remove_session+0x1a>
/root/devel/optee/optee_os/lib/libutee/arch/arm/user_ta_entry.c:123 (discriminator 1)
      c8:	68d9      	ldr	r1, [r3, #12]
      ca:	60d1      	str	r1, [r2, #12]
      cc:	e003      	b.n	d6 <ta_header_remove_session+0x22>
/root/devel/optee/optee_os/lib/libutee/arch/arm/user_ta_entry.c:123 (discriminator 2)
      ce:	490c      	ldr	r1, [pc, #48]	; (100 <ta_header_remove_session+0x4c>)
      d0:	68d8      	ldr	r0, [r3, #12]
      d2:	4479      	add	r1, pc
      d4:	6048      	str	r0, [r1, #4]
/root/devel/optee/optee_os/lib/libutee/arch/arm/user_ta_entry.c:123 (discriminator 4)
      d6:	68d9      	ldr	r1, [r3, #12]
/root/devel/optee/optee_os/lib/libutee/arch/arm/user_ta_entry.c:124 (discriminator 4)
      d8:	4618      	mov	r0, r3
/root/devel/optee/optee_os/lib/libutee/arch/arm/user_ta_entry.c:123 (discriminator 4)
      da:	600a      	str	r2, [r1, #0]
/root/devel/optee/optee_os/lib/libutee/arch/arm/user_ta_entry.c:124 (discriminator 4)
      dc:	f001 f838 	bl	1150 <TEE_Free>
/root/devel/optee/optee_os/lib/libutee/arch/arm/user_ta_entry.c:126 (discriminator 4)
      e0:	4a08      	ldr	r2, [pc, #32]	; (104 <ta_header_remove_session+0x50>)
      e2:	447a      	add	r2, pc
      e4:	6813      	ldr	r3, [r2, #0]
      e6:	3b01      	subs	r3, #1
      e8:	6013      	str	r3, [r2, #0]
/root/devel/optee/optee_os/lib/libutee/arch/arm/user_ta_entry.c:127 (discriminator 4)
      ea:	b92b      	cbnz	r3, f8 <ta_header_remove_session+0x44>
/root/devel/optee/optee_os/lib/libutee/arch/arm/user_ta_entry.c:133
      ec:	e8bd 4008 	ldmia.w	sp!, {r3, lr}
/root/devel/optee/optee_os/lib/libutee/arch/arm/user_ta_entry.c:128
      f0:	f7ff bf98 	b.w	24 <TA_DestroyEntryPoint>
/root/devel/optee/optee_os/lib/libutee/arch/arm/user_ta_entry.c:121 (discriminator 2)
      f4:	689b      	ldr	r3, [r3, #8]
      f6:	e7e1      	b.n	bc <ta_header_remove_session+0x8>
      f8:	bd08      	pop	{r3, pc}
      fa:	bf00      	nop
      fc:	00006fb4 	.word	0x00006fb4
     100:	00006f9a 	.word	0x00006f9a
     104:	00006faa 	.word	0x00006faa

00000108 <ta_header_save_params.part.0>:
ta_header_save_params():
/root/devel/optee/optee_os/lib/libutee/arch/arm/user_ta_entry.c:68
     108:	4803      	ldr	r0, [pc, #12]	; (118 <ta_header_save_params.part.0+0x10>)
     10a:	2220      	movs	r2, #32
     10c:	2100      	movs	r1, #0
     10e:	4478      	add	r0, pc
     110:	3004      	adds	r0, #4
     112:	f003 bae6 	b.w	36e2 <memset>
     116:	bf00      	nop
     118:	00006f7e 	.word	0x00006f7e

0000011c <__utee_entry>:
__utee_entry():
/root/devel/optee/optee_os/lib/libutee/arch/arm/user_ta_entry.c:200
     11c:	f8df 8198 	ldr.w	r8, [pc, #408]	; 2b8 <__utee_entry+0x19c>
/root/devel/optee/optee_os/lib/libutee/arch/arm/user_ta_entry.c:203
     120:	2801      	cmp	r0, #1
/root/devel/optee/optee_os/lib/libutee/arch/arm/user_ta_entry.c:200
     122:	4616      	mov	r6, r2
     124:	b580      	push	{r7, lr}
     126:	4699      	mov	r9, r3
     128:	b08e      	sub	sp, #56	; 0x38
     12a:	460f      	mov	r7, r1
     12c:	44f8      	add	r8, pc
/root/devel/optee/optee_os/lib/libutee/arch/arm/user_ta_entry.c:203
     12e:	d040      	beq.n	1b2 <__utee_entry+0x96>
     130:	d302      	bcc.n	138 <__utee_entry+0x1c>
     132:	2802      	cmp	r0, #2
     134:	d04a      	beq.n	1cc <__utee_entry+0xb0>
     136:	e071      	b.n	21c <__utee_entry+0x100>
ta_header_add_session():
/root/devel/optee/optee_os/lib/libutee/arch/arm/user_ta_entry.c:84
     138:	4608      	mov	r0, r1
     13a:	f7ff ffad 	bl	98 <ta_header_get_session>
/root/devel/optee/optee_os/lib/libutee/arch/arm/user_ta_entry.c:86
     13e:	2800      	cmp	r0, #0
     140:	d17e      	bne.n	240 <__utee_entry+0x124>
/root/devel/optee/optee_os/lib/libutee/arch/arm/user_ta_entry.c:89
     142:	4d5e      	ldr	r5, [pc, #376]	; (2bc <__utee_entry+0x1a0>)
     144:	447d      	add	r5, pc
     146:	682c      	ldr	r4, [r5, #0]
     148:	3401      	adds	r4, #1
/root/devel/optee/optee_os/lib/libutee/arch/arm/user_ta_entry.c:91
     14a:	2c01      	cmp	r4, #1
/root/devel/optee/optee_os/lib/libutee/arch/arm/user_ta_entry.c:89
     14c:	602c      	str	r4, [r5, #0]
/root/devel/optee/optee_os/lib/libutee/arch/arm/user_ta_entry.c:91
     14e:	d014      	beq.n	17a <__utee_entry+0x5e>
/root/devel/optee/optee_os/lib/libutee/arch/arm/user_ta_entry.c:106
     150:	f04f 4100 	mov.w	r1, #2147483648	; 0x80000000
     154:	2010      	movs	r0, #16
     156:	f000 fff7 	bl	1148 <TEE_Malloc>
/root/devel/optee/optee_os/lib/libutee/arch/arm/user_ta_entry.c:108
     15a:	2800      	cmp	r0, #0
     15c:	f000 80a6 	beq.w	2ac <__utee_entry+0x190>
/root/devel/optee/optee_os/lib/libutee/arch/arm/user_ta_entry.c:111
     160:	2200      	movs	r2, #0
/root/devel/optee/optee_os/lib/libutee/arch/arm/user_ta_entry.c:112
     162:	f100 0308 	add.w	r3, r0, #8
/root/devel/optee/optee_os/lib/libutee/arch/arm/user_ta_entry.c:110
     166:	6007      	str	r7, [r0, #0]
/root/devel/optee/optee_os/lib/libutee/arch/arm/user_ta_entry.c:111
     168:	6042      	str	r2, [r0, #4]
/root/devel/optee/optee_os/lib/libutee/arch/arm/user_ta_entry.c:112
     16a:	6082      	str	r2, [r0, #8]
     16c:	4a54      	ldr	r2, [pc, #336]	; (2c0 <__utee_entry+0x1a4>)
     16e:	447a      	add	r2, pc
     170:	6851      	ldr	r1, [r2, #4]
     172:	60c1      	str	r1, [r0, #12]
     174:	6008      	str	r0, [r1, #0]
     176:	6053      	str	r3, [r2, #4]
     178:	e062      	b.n	240 <__utee_entry+0x124>
/root/devel/optee/optee_os/lib/libutee/arch/arm/user_ta_entry.c:94
     17a:	f895 3024 	ldrb.w	r3, [r5, #36]	; 0x24
     17e:	b993      	cbnz	r3, 1a6 <__utee_entry+0x8a>
/root/devel/optee/optee_os/lib/libutee/arch/arm/user_ta_entry.c:95
     180:	f003 fa4c 	bl	361c <tahead_get_trace_level>
     184:	f002 fb0d 	bl	27a2 <trace_set_level>
/root/devel/optee/optee_os/lib/libutee/arch/arm/user_ta_entry.c:96
     188:	4b4e      	ldr	r3, [pc, #312]	; (2c4 <__utee_entry+0x1a8>)
     18a:	4a4f      	ldr	r2, [pc, #316]	; (2c8 <__utee_entry+0x1ac>)
     18c:	f858 3003 	ldr.w	r3, [r8, r3]
     190:	f858 2002 	ldr.w	r2, [r8, r2]
     194:	6819      	ldr	r1, [r3, #0]
     196:	4610      	mov	r0, r2
     198:	9203      	str	r2, [sp, #12]
     19a:	f001 fe51 	bl	1e40 <malloc_add_pool>
/root/devel/optee/optee_os/lib/libutee/arch/arm/user_ta_entry.c:97
     19e:	f000 fb87 	bl	8b0 <_TEE_MathAPI_Init>
/root/devel/optee/optee_os/lib/libutee/arch/arm/user_ta_entry.c:98
     1a2:	f885 4024 	strb.w	r4, [r5, #36]	; 0x24
/root/devel/optee/optee_os/lib/libutee/arch/arm/user_ta_entry.c:101
     1a6:	f7ff ff3b 	bl	20 <TA_CreateEntryPoint>
/root/devel/optee/optee_os/lib/libutee/arch/arm/user_ta_entry.c:102
     1aa:	2800      	cmp	r0, #0
     1ac:	d0d0      	beq.n	150 <__utee_entry+0x34>
     1ae:	4604      	mov	r4, r0
     1b0:	e04c      	b.n	24c <__utee_entry+0x130>
entry_close_session():
/root/devel/optee/optee_os/lib/libutee/arch/arm/user_ta_entry.c:166
     1b2:	4608      	mov	r0, r1
     1b4:	f7ff ff70 	bl	98 <ta_header_get_session>
/root/devel/optee/optee_os/lib/libutee/arch/arm/user_ta_entry.c:168
     1b8:	2800      	cmp	r0, #0
     1ba:	d046      	beq.n	24a <__utee_entry+0x12e>
/root/devel/optee/optee_os/lib/libutee/arch/arm/user_ta_entry.c:171
     1bc:	6840      	ldr	r0, [r0, #4]
/root/devel/optee/optee_os/lib/libutee/arch/arm/user_ta_entry.c:174
     1be:	2400      	movs	r4, #0
/root/devel/optee/optee_os/lib/libutee/arch/arm/user_ta_entry.c:171
     1c0:	f7ff ff4a 	bl	58 <TA_CloseSessionEntryPoint>
/root/devel/optee/optee_os/lib/libutee/arch/arm/user_ta_entry.c:173
     1c4:	4638      	mov	r0, r7
     1c6:	f7ff ff75 	bl	b4 <ta_header_remove_session>
     1ca:	e03f      	b.n	24c <__utee_entry+0x130>
entry_invoke_command():
/root/devel/optee/optee_os/lib/libutee/arch/arm/user_ta_entry.c:183
     1cc:	4608      	mov	r0, r1
     1ce:	f7ff ff63 	bl	98 <ta_header_get_session>
/root/devel/optee/optee_os/lib/libutee/arch/arm/user_ta_entry.c:185
     1d2:	4680      	mov	r8, r0
     1d4:	2800      	cmp	r0, #0
     1d6:	d038      	beq.n	24a <__utee_entry+0x12e>
/root/devel/optee/optee_os/lib/libutee/arch/arm/user_ta_entry.c:188
     1d8:	af06      	add	r7, sp, #24
ta_header_save_params():
/root/devel/optee/optee_os/lib/libutee/arch/arm/user_ta_entry.c:63
     1da:	4c3c      	ldr	r4, [pc, #240]	; (2cc <__utee_entry+0x1b0>)
entry_invoke_command():
/root/devel/optee/optee_os/lib/libutee/arch/arm/user_ta_entry.c:188
     1dc:	4632      	mov	r2, r6
     1de:	a905      	add	r1, sp, #20
     1e0:	4638      	mov	r0, r7
     1e2:	f000 fdf0 	bl	dc6 <__utee_to_param>
ta_header_save_params():
/root/devel/optee/optee_os/lib/libutee/arch/arm/user_ta_entry.c:66
     1e6:	463d      	mov	r5, r7
entry_invoke_command():
/root/devel/optee/optee_os/lib/libutee/arch/arm/user_ta_entry.c:189
     1e8:	f8dd e014 	ldr.w	lr, [sp, #20]
ta_header_save_params():
/root/devel/optee/optee_os/lib/libutee/arch/arm/user_ta_entry.c:66
     1ec:	cd0f      	ldmia	r5!, {r0, r1, r2, r3}
/root/devel/optee/optee_os/lib/libutee/arch/arm/user_ta_entry.c:63
     1ee:	447c      	add	r4, pc
/root/devel/optee/optee_os/lib/libutee/arch/arm/user_ta_entry.c:66
     1f0:	3404      	adds	r4, #4
/root/devel/optee/optee_os/lib/libutee/arch/arm/user_ta_entry.c:63
     1f2:	f8c4 e024 	str.w	lr, [r4, #36]	; 0x24
/root/devel/optee/optee_os/lib/libutee/arch/arm/user_ta_entry.c:66
     1f6:	c40f      	stmia	r4!, {r0, r1, r2, r3}
     1f8:	e895 000f 	ldmia.w	r5, {r0, r1, r2, r3}
     1fc:	e884 000f 	stmia.w	r4, {r0, r1, r2, r3}
entry_invoke_command():
/root/devel/optee/optee_os/lib/libutee/arch/arm/user_ta_entry.c:191
     200:	4672      	mov	r2, lr
     202:	4649      	mov	r1, r9
     204:	463b      	mov	r3, r7
     206:	f8d8 0004 	ldr.w	r0, [r8, #4]
     20a:	f7ff ff39 	bl	80 <TA_InvokeCommandEntryPoint>
     20e:	4604      	mov	r4, r0
/root/devel/optee/optee_os/lib/libutee/arch/arm/user_ta_entry.c:194
     210:	463a      	mov	r2, r7
     212:	9905      	ldr	r1, [sp, #20]
     214:	4630      	mov	r0, r6
     216:	f000 fda9 	bl	d6c <__utee_from_param>
     21a:	e017      	b.n	24c <__utee_entry+0x130>
__utee_entry():
/root/devel/optee/optee_os/lib/libutee/arch/arm/user_ta_entry.c:215
     21c:	4b2c      	ldr	r3, [pc, #176]	; (2d0 <__utee_entry+0x1b4>)
     21e:	2400      	movs	r4, #0
     220:	21d7      	movs	r1, #215	; 0xd7
     222:	482c      	ldr	r0, [pc, #176]	; (2d4 <__utee_entry+0x1b8>)
     224:	9401      	str	r4, [sp, #4]
     226:	447b      	add	r3, pc
     228:	4478      	add	r0, pc
     22a:	9300      	str	r3, [sp, #0]
     22c:	2301      	movs	r3, #1
     22e:	461a      	mov	r2, r3
     230:	f002 fad0 	bl	27d4 <trace_printf>
     234:	4620      	mov	r0, r4
/root/devel/optee/optee_os/lib/libutee/arch/arm/user_ta_entry.c:214
     236:	f04f 34ff 	mov.w	r4, #4294967295
/root/devel/optee/optee_os/lib/libutee/arch/arm/user_ta_entry.c:215
     23a:	f003 f9f1 	bl	3620 <__TEE_Panic>
/root/devel/optee/optee_os/lib/libutee/arch/arm/user_ta_entry.c:216
     23e:	e005      	b.n	24c <__utee_entry+0x130>
entry_open_session():
/root/devel/optee/optee_os/lib/libutee/arch/arm/user_ta_entry.c:147
     240:	4638      	mov	r0, r7
     242:	f7ff ff29 	bl	98 <ta_header_get_session>
/root/devel/optee/optee_os/lib/libutee/arch/arm/user_ta_entry.c:148
     246:	4681      	mov	r9, r0
     248:	b948      	cbnz	r0, 25e <__utee_entry+0x142>
entry_close_session():
/root/devel/optee/optee_os/lib/libutee/arch/arm/user_ta_entry.c:169
     24a:	4c19      	ldr	r4, [pc, #100]	; (2b0 <__utee_entry+0x194>)
ta_header_save_params():
/root/devel/optee/optee_os/lib/libutee/arch/arm/user_ta_entry.c:63
     24c:	4b22      	ldr	r3, [pc, #136]	; (2d8 <__utee_entry+0x1bc>)
     24e:	2200      	movs	r2, #0
     250:	447b      	add	r3, pc
     252:	629a      	str	r2, [r3, #40]	; 0x28
     254:	f7ff ff58 	bl	108 <ta_header_save_params.part.0>
__utee_entry():
/root/devel/optee/optee_os/lib/libutee/arch/arm/user_ta_entry.c:219
     258:	4620      	mov	r0, r4
     25a:	f000 e842 	blx	2e0 <utee_return>
entry_open_session():
/root/devel/optee/optee_os/lib/libutee/arch/arm/user_ta_entry.c:151
     25e:	f10d 0818 	add.w	r8, sp, #24
ta_header_save_params():
/root/devel/optee/optee_os/lib/libutee/arch/arm/user_ta_entry.c:63
     262:	4c1e      	ldr	r4, [pc, #120]	; (2dc <__utee_entry+0x1c0>)
entry_open_session():
/root/devel/optee/optee_os/lib/libutee/arch/arm/user_ta_entry.c:151
     264:	4632      	mov	r2, r6
     266:	a905      	add	r1, sp, #20
     268:	4640      	mov	r0, r8
     26a:	f000 fdac 	bl	dc6 <__utee_to_param>
ta_header_save_params():
/root/devel/optee/optee_os/lib/libutee/arch/arm/user_ta_entry.c:66
     26e:	4645      	mov	r5, r8
entry_open_session():
/root/devel/optee/optee_os/lib/libutee/arch/arm/user_ta_entry.c:152
     270:	f8dd e014 	ldr.w	lr, [sp, #20]
ta_header_save_params():
/root/devel/optee/optee_os/lib/libutee/arch/arm/user_ta_entry.c:66
     274:	cd0f      	ldmia	r5!, {r0, r1, r2, r3}
/root/devel/optee/optee_os/lib/libutee/arch/arm/user_ta_entry.c:63
     276:	447c      	add	r4, pc
/root/devel/optee/optee_os/lib/libutee/arch/arm/user_ta_entry.c:66
     278:	3404      	adds	r4, #4
/root/devel/optee/optee_os/lib/libutee/arch/arm/user_ta_entry.c:63
     27a:	f8c4 e024 	str.w	lr, [r4, #36]	; 0x24
/root/devel/optee/optee_os/lib/libutee/arch/arm/user_ta_entry.c:66
     27e:	c40f      	stmia	r4!, {r0, r1, r2, r3}
     280:	e895 000f 	ldmia.w	r5, {r0, r1, r2, r3}
     284:	e884 000f 	stmia.w	r4, {r0, r1, r2, r3}
entry_open_session():
/root/devel/optee/optee_os/lib/libutee/arch/arm/user_ta_entry.c:154
     288:	f109 0204 	add.w	r2, r9, #4
     28c:	4641      	mov	r1, r8
     28e:	4670      	mov	r0, lr
     290:	f7ff fec9 	bl	26 <TA_OpenSessionEntryPoint>
     294:	4604      	mov	r4, r0
/root/devel/optee/optee_os/lib/libutee/arch/arm/user_ta_entry.c:157
     296:	4642      	mov	r2, r8
     298:	9905      	ldr	r1, [sp, #20]
     29a:	4630      	mov	r0, r6
     29c:	f000 fd66 	bl	d6c <__utee_from_param>
/root/devel/optee/optee_os/lib/libutee/arch/arm/user_ta_entry.c:159
     2a0:	2c00      	cmp	r4, #0
     2a2:	d0d3      	beq.n	24c <__utee_entry+0x130>
/root/devel/optee/optee_os/lib/libutee/arch/arm/user_ta_entry.c:160
     2a4:	4638      	mov	r0, r7
     2a6:	f7ff ff05 	bl	b4 <ta_header_remove_session>
     2aa:	e7cf      	b.n	24c <__utee_entry+0x130>
ta_header_add_session():
/root/devel/optee/optee_os/lib/libutee/arch/arm/user_ta_entry.c:109
     2ac:	4c01      	ldr	r4, [pc, #4]	; (2b4 <__utee_entry+0x198>)
     2ae:	e7cd      	b.n	24c <__utee_entry+0x130>
     2b0:	ffff0007 	.word	0xffff0007
     2b4:	ffff000c 	.word	0xffff000c
     2b8:	00006798 	.word	0x00006798
     2bc:	00006f48 	.word	0x00006f48
     2c0:	00006efe 	.word	0x00006efe
     2c4:	0000000c 	.word	0x0000000c
     2c8:	00000020 	.word	0x00000020
     2cc:	00006e9e 	.word	0x00006e9e
     2d0:	00005e93 	.word	0x00005e93
     2d4:	00005e84 	.word	0x00005e84
     2d8:	00006e3c 	.word	0x00006e3c
     2dc:	00006e16 	.word	0x00006e16

000002e0 <utee_return>:
utee_return():
     2e0:	e92d40e0 	push	{r5, r6, r7, lr}
     2e4:	e3a07000 	mov	r7, #0
     2e8:	e3a06000 	mov	r6, #0
     2ec:	ef000000 	svc	0x00000000
     2f0:	e8bd80e0 	pop	{r5, r6, r7, pc}

000002f4 <utee_log>:
utee_log():
     2f4:	e92d40e0 	push	{r5, r6, r7, lr}
     2f8:	e3a07001 	mov	r7, #1
     2fc:	e3a06000 	mov	r6, #0
     300:	ef000000 	svc	0x00000000
     304:	e8bd80e0 	pop	{r5, r6, r7, pc}

00000308 <utee_panic>:
utee_panic():
     308:	e92d40e0 	push	{r5, r6, r7, lr}
     30c:	e3a07002 	mov	r7, #2
     310:	e3a06000 	mov	r6, #0
     314:	ef000000 	svc	0x00000000
     318:	e8bd80e0 	pop	{r5, r6, r7, pc}

0000031c <utee_get_property>:
utee_get_property():
     31c:	e92d40e0 	push	{r5, r6, r7, lr}
     320:	e3a07003 	mov	r7, #3
     324:	e3a06003 	mov	r6, #3
     328:	e28d5010 	add	r5, sp, #16
     32c:	ef000000 	svc	0x00000000
     330:	e8bd80e0 	pop	{r5, r6, r7, pc}

00000334 <utee_get_property_name_to_index>:
utee_get_property_name_to_index():
     334:	e92d40e0 	push	{r5, r6, r7, lr}
     338:	e3a07004 	mov	r7, #4
     33c:	e3a06000 	mov	r6, #0
     340:	ef000000 	svc	0x00000000
     344:	e8bd80e0 	pop	{r5, r6, r7, pc}

00000348 <utee_open_ta_session>:
utee_open_ta_session():
     348:	e92d40e0 	push	{r5, r6, r7, lr}
     34c:	e3a07005 	mov	r7, #5
     350:	e3a06001 	mov	r6, #1
     354:	e28d5010 	add	r5, sp, #16
     358:	ef000000 	svc	0x00000000
     35c:	e8bd80e0 	pop	{r5, r6, r7, pc}

00000360 <utee_close_ta_session>:
utee_close_ta_session():
     360:	e92d40e0 	push	{r5, r6, r7, lr}
     364:	e3a07006 	mov	r7, #6
     368:	e3a06000 	mov	r6, #0
     36c:	ef000000 	svc	0x00000000
     370:	e8bd80e0 	pop	{r5, r6, r7, pc}

00000374 <utee_invoke_ta_command>:
utee_invoke_ta_command():
     374:	e92d40e0 	push	{r5, r6, r7, lr}
     378:	e3a07007 	mov	r7, #7
     37c:	e3a06001 	mov	r6, #1
     380:	e28d5010 	add	r5, sp, #16
     384:	ef000000 	svc	0x00000000
     388:	e8bd80e0 	pop	{r5, r6, r7, pc}

0000038c <utee_get_cancellation_flag>:
utee_get_cancellation_flag():
     38c:	e92d40e0 	push	{r5, r6, r7, lr}
     390:	e3a07009 	mov	r7, #9
     394:	e3a06000 	mov	r6, #0
     398:	ef000000 	svc	0x00000000
     39c:	e8bd80e0 	pop	{r5, r6, r7, pc}

000003a0 <utee_check_access_rights>:
utee_check_access_rights():
     3a0:	e92d40e0 	push	{r5, r6, r7, lr}
     3a4:	e3a07008 	mov	r7, #8
     3a8:	e3a06000 	mov	r6, #0
     3ac:	ef000000 	svc	0x00000000
     3b0:	e8bd80e0 	pop	{r5, r6, r7, pc}

000003b4 <utee_unmask_cancellation>:
utee_unmask_cancellation():
     3b4:	e92d40e0 	push	{r5, r6, r7, lr}
     3b8:	e3a0700a 	mov	r7, #10
     3bc:	e3a06000 	mov	r6, #0
     3c0:	ef000000 	svc	0x00000000
     3c4:	e8bd80e0 	pop	{r5, r6, r7, pc}

000003c8 <utee_mask_cancellation>:
utee_mask_cancellation():
     3c8:	e92d40e0 	push	{r5, r6, r7, lr}
     3cc:	e3a0700b 	mov	r7, #11
     3d0:	e3a06000 	mov	r6, #0
     3d4:	ef000000 	svc	0x00000000
     3d8:	e8bd80e0 	pop	{r5, r6, r7, pc}

000003dc <utee_wait>:
utee_wait():
     3dc:	e92d40e0 	push	{r5, r6, r7, lr}
     3e0:	e3a0700c 	mov	r7, #12
     3e4:	e3a06000 	mov	r6, #0
     3e8:	ef000000 	svc	0x00000000
     3ec:	e8bd80e0 	pop	{r5, r6, r7, pc}

000003f0 <utee_get_time>:
utee_get_time():
     3f0:	e92d40e0 	push	{r5, r6, r7, lr}
     3f4:	e3a0700d 	mov	r7, #13
     3f8:	e3a06000 	mov	r6, #0
     3fc:	ef000000 	svc	0x00000000
     400:	e8bd80e0 	pop	{r5, r6, r7, pc}

00000404 <utee_set_ta_time>:
utee_set_ta_time():
     404:	e92d40e0 	push	{r5, r6, r7, lr}
     408:	e3a0700e 	mov	r7, #14
     40c:	e3a06000 	mov	r6, #0
     410:	ef000000 	svc	0x00000000
     414:	e8bd80e0 	pop	{r5, r6, r7, pc}

00000418 <utee_cryp_state_alloc>:
utee_cryp_state_alloc():
     418:	e92d40e0 	push	{r5, r6, r7, lr}
     41c:	e3a0700f 	mov	r7, #15
     420:	e3a06001 	mov	r6, #1
     424:	e28d5010 	add	r5, sp, #16
     428:	ef000000 	svc	0x00000000
     42c:	e8bd80e0 	pop	{r5, r6, r7, pc}

00000430 <utee_cryp_state_copy>:
utee_cryp_state_copy():
     430:	e92d40e0 	push	{r5, r6, r7, lr}
     434:	e3a07010 	mov	r7, #16
     438:	e3a06000 	mov	r6, #0
     43c:	ef000000 	svc	0x00000000
     440:	e8bd80e0 	pop	{r5, r6, r7, pc}

00000444 <utee_cryp_state_free>:
utee_cryp_state_free():
     444:	e92d40e0 	push	{r5, r6, r7, lr}
     448:	e3a07011 	mov	r7, #17
     44c:	e3a06000 	mov	r6, #0
     450:	ef000000 	svc	0x00000000
     454:	e8bd80e0 	pop	{r5, r6, r7, pc}

00000458 <utee_hash_init>:
utee_hash_init():
     458:	e92d40e0 	push	{r5, r6, r7, lr}
     45c:	e3a07012 	mov	r7, #18
     460:	e3a06000 	mov	r6, #0
     464:	ef000000 	svc	0x00000000
     468:	e8bd80e0 	pop	{r5, r6, r7, pc}

0000046c <utee_hash_update>:
utee_hash_update():
     46c:	e92d40e0 	push	{r5, r6, r7, lr}
     470:	e3a07013 	mov	r7, #19
     474:	e3a06000 	mov	r6, #0
     478:	ef000000 	svc	0x00000000
     47c:	e8bd80e0 	pop	{r5, r6, r7, pc}

00000480 <utee_hash_final>:
utee_hash_final():
     480:	e92d40e0 	push	{r5, r6, r7, lr}
     484:	e3a07014 	mov	r7, #20
     488:	e3a06001 	mov	r6, #1
     48c:	e28d5010 	add	r5, sp, #16
     490:	ef000000 	svc	0x00000000
     494:	e8bd80e0 	pop	{r5, r6, r7, pc}

00000498 <utee_cipher_init>:
utee_cipher_init():
     498:	e92d40e0 	push	{r5, r6, r7, lr}
     49c:	e3a07015 	mov	r7, #21
     4a0:	e3a06000 	mov	r6, #0
     4a4:	ef000000 	svc	0x00000000
     4a8:	e8bd80e0 	pop	{r5, r6, r7, pc}

000004ac <utee_cipher_update>:
utee_cipher_update():
     4ac:	e92d40e0 	push	{r5, r6, r7, lr}
     4b0:	e3a07016 	mov	r7, #22
     4b4:	e3a06001 	mov	r6, #1
     4b8:	e28d5010 	add	r5, sp, #16
     4bc:	ef000000 	svc	0x00000000
     4c0:	e8bd80e0 	pop	{r5, r6, r7, pc}

000004c4 <utee_cipher_final>:
utee_cipher_final():
     4c4:	e92d40e0 	push	{r5, r6, r7, lr}
     4c8:	e3a07017 	mov	r7, #23
     4cc:	e3a06001 	mov	r6, #1
     4d0:	e28d5010 	add	r5, sp, #16
     4d4:	ef000000 	svc	0x00000000
     4d8:	e8bd80e0 	pop	{r5, r6, r7, pc}

000004dc <utee_cryp_obj_get_info>:
utee_cryp_obj_get_info():
     4dc:	e92d40e0 	push	{r5, r6, r7, lr}
     4e0:	e3a07018 	mov	r7, #24
     4e4:	e3a06000 	mov	r6, #0
     4e8:	ef000000 	svc	0x00000000
     4ec:	e8bd80e0 	pop	{r5, r6, r7, pc}

000004f0 <utee_cryp_obj_restrict_usage>:
utee_cryp_obj_restrict_usage():
     4f0:	e92d40e0 	push	{r5, r6, r7, lr}
     4f4:	e3a07019 	mov	r7, #25
     4f8:	e3a06000 	mov	r6, #0
     4fc:	ef000000 	svc	0x00000000
     500:	e8bd80e0 	pop	{r5, r6, r7, pc}

00000504 <utee_cryp_obj_get_attr>:
utee_cryp_obj_get_attr():
     504:	e92d40e0 	push	{r5, r6, r7, lr}
     508:	e3a0701a 	mov	r7, #26
     50c:	e3a06000 	mov	r6, #0
     510:	ef000000 	svc	0x00000000
     514:	e8bd80e0 	pop	{r5, r6, r7, pc}

00000518 <utee_cryp_obj_alloc>:
utee_cryp_obj_alloc():
     518:	e92d40e0 	push	{r5, r6, r7, lr}
     51c:	e3a0701b 	mov	r7, #27
     520:	e3a06000 	mov	r6, #0
     524:	ef000000 	svc	0x00000000
     528:	e8bd80e0 	pop	{r5, r6, r7, pc}

0000052c <utee_cryp_obj_close>:
utee_cryp_obj_close():
     52c:	e92d40e0 	push	{r5, r6, r7, lr}
     530:	e3a0701c 	mov	r7, #28
     534:	e3a06000 	mov	r6, #0
     538:	ef000000 	svc	0x00000000
     53c:	e8bd80e0 	pop	{r5, r6, r7, pc}

00000540 <utee_cryp_obj_reset>:
utee_cryp_obj_reset():
     540:	e92d40e0 	push	{r5, r6, r7, lr}
     544:	e3a0701d 	mov	r7, #29
     548:	e3a06000 	mov	r6, #0
     54c:	ef000000 	svc	0x00000000
     550:	e8bd80e0 	pop	{r5, r6, r7, pc}

00000554 <utee_cryp_obj_populate>:
utee_cryp_obj_populate():
     554:	e92d40e0 	push	{r5, r6, r7, lr}
     558:	e3a0701e 	mov	r7, #30
     55c:	e3a06000 	mov	r6, #0
     560:	ef000000 	svc	0x00000000
     564:	e8bd80e0 	pop	{r5, r6, r7, pc}

00000568 <utee_cryp_obj_copy>:
utee_cryp_obj_copy():
     568:	e92d40e0 	push	{r5, r6, r7, lr}
     56c:	e3a0701f 	mov	r7, #31
     570:	e3a06000 	mov	r6, #0
     574:	ef000000 	svc	0x00000000
     578:	e8bd80e0 	pop	{r5, r6, r7, pc}

0000057c <utee_cryp_derive_key>:
utee_cryp_derive_key():
     57c:	e92d40e0 	push	{r5, r6, r7, lr}
     580:	e3a07020 	mov	r7, #32
     584:	e3a06000 	mov	r6, #0
     588:	ef000000 	svc	0x00000000
     58c:	e8bd80e0 	pop	{r5, r6, r7, pc}

00000590 <utee_cryp_random_number_generate>:
utee_cryp_random_number_generate():
     590:	e92d40e0 	push	{r5, r6, r7, lr}
     594:	e3a07021 	mov	r7, #33	; 0x21
     598:	e3a06000 	mov	r6, #0
     59c:	ef000000 	svc	0x00000000
     5a0:	e8bd80e0 	pop	{r5, r6, r7, pc}

000005a4 <utee_authenc_init>:
utee_authenc_init():
     5a4:	e92d40e0 	push	{r5, r6, r7, lr}
     5a8:	e3a07022 	mov	r7, #34	; 0x22
     5ac:	e3a06002 	mov	r6, #2
     5b0:	e28d5010 	add	r5, sp, #16
     5b4:	ef000000 	svc	0x00000000
     5b8:	e8bd80e0 	pop	{r5, r6, r7, pc}

000005bc <utee_authenc_update_aad>:
utee_authenc_update_aad():
     5bc:	e92d40e0 	push	{r5, r6, r7, lr}
     5c0:	e3a07023 	mov	r7, #35	; 0x23
     5c4:	e3a06000 	mov	r6, #0
     5c8:	ef000000 	svc	0x00000000
     5cc:	e8bd80e0 	pop	{r5, r6, r7, pc}

000005d0 <utee_authenc_update_payload>:
utee_authenc_update_payload():
     5d0:	e92d40e0 	push	{r5, r6, r7, lr}
     5d4:	e3a07024 	mov	r7, #36	; 0x24
     5d8:	e3a06001 	mov	r6, #1
     5dc:	e28d5010 	add	r5, sp, #16
     5e0:	ef000000 	svc	0x00000000
     5e4:	e8bd80e0 	pop	{r5, r6, r7, pc}

000005e8 <utee_authenc_enc_final>:
utee_authenc_enc_final():
     5e8:	e92d40e0 	push	{r5, r6, r7, lr}
     5ec:	e3a07025 	mov	r7, #37	; 0x25
     5f0:	e3a06003 	mov	r6, #3
     5f4:	e28d5010 	add	r5, sp, #16
     5f8:	ef000000 	svc	0x00000000
     5fc:	e8bd80e0 	pop	{r5, r6, r7, pc}

00000600 <utee_authenc_dec_final>:
utee_authenc_dec_final():
     600:	e92d40e0 	push	{r5, r6, r7, lr}
     604:	e3a07026 	mov	r7, #38	; 0x26
     608:	e3a06003 	mov	r6, #3
     60c:	e28d5010 	add	r5, sp, #16
     610:	ef000000 	svc	0x00000000
     614:	e8bd80e0 	pop	{r5, r6, r7, pc}

00000618 <utee_asymm_operate>:
utee_asymm_operate():
     618:	e92d40e0 	push	{r5, r6, r7, lr}
     61c:	e3a07027 	mov	r7, #39	; 0x27
     620:	e3a06003 	mov	r6, #3
     624:	e28d5010 	add	r5, sp, #16
     628:	ef000000 	svc	0x00000000
     62c:	e8bd80e0 	pop	{r5, r6, r7, pc}

00000630 <utee_asymm_verify>:
utee_asymm_verify():
     630:	e92d40e0 	push	{r5, r6, r7, lr}
     634:	e3a07028 	mov	r7, #40	; 0x28
     638:	e3a06003 	mov	r6, #3
     63c:	e28d5010 	add	r5, sp, #16
     640:	ef000000 	svc	0x00000000
     644:	e8bd80e0 	pop	{r5, r6, r7, pc}

00000648 <utee_storage_obj_open>:
utee_storage_obj_open():
     648:	e92d40e0 	push	{r5, r6, r7, lr}
     64c:	e3a07029 	mov	r7, #41	; 0x29
     650:	e3a06001 	mov	r6, #1
     654:	e28d5010 	add	r5, sp, #16
     658:	ef000000 	svc	0x00000000
     65c:	e8bd80e0 	pop	{r5, r6, r7, pc}

00000660 <utee_storage_obj_create>:
utee_storage_obj_create():
     660:	e92d40e0 	push	{r5, r6, r7, lr}
     664:	e3a0702a 	mov	r7, #42	; 0x2a
     668:	e3a06004 	mov	r6, #4
     66c:	e28d5010 	add	r5, sp, #16
     670:	ef000000 	svc	0x00000000
     674:	e8bd80e0 	pop	{r5, r6, r7, pc}

00000678 <utee_storage_obj_del>:
utee_storage_obj_del():
     678:	e92d40e0 	push	{r5, r6, r7, lr}
     67c:	e3a0702b 	mov	r7, #43	; 0x2b
     680:	e3a06000 	mov	r6, #0
     684:	ef000000 	svc	0x00000000
     688:	e8bd80e0 	pop	{r5, r6, r7, pc}

0000068c <utee_storage_obj_rename>:
utee_storage_obj_rename():
     68c:	e92d40e0 	push	{r5, r6, r7, lr}
     690:	e3a0702c 	mov	r7, #44	; 0x2c
     694:	e3a06000 	mov	r6, #0
     698:	ef000000 	svc	0x00000000
     69c:	e8bd80e0 	pop	{r5, r6, r7, pc}

000006a0 <utee_storage_alloc_enum>:
utee_storage_alloc_enum():
     6a0:	e92d40e0 	push	{r5, r6, r7, lr}
     6a4:	e3a0702d 	mov	r7, #45	; 0x2d
     6a8:	e3a06000 	mov	r6, #0
     6ac:	ef000000 	svc	0x00000000
     6b0:	e8bd80e0 	pop	{r5, r6, r7, pc}

000006b4 <utee_storage_free_enum>:
utee_storage_free_enum():
     6b4:	e92d40e0 	push	{r5, r6, r7, lr}
     6b8:	e3a0702e 	mov	r7, #46	; 0x2e
     6bc:	e3a06000 	mov	r6, #0
     6c0:	ef000000 	svc	0x00000000
     6c4:	e8bd80e0 	pop	{r5, r6, r7, pc}

000006c8 <utee_storage_reset_enum>:
utee_storage_reset_enum():
     6c8:	e92d40e0 	push	{r5, r6, r7, lr}
     6cc:	e3a0702f 	mov	r7, #47	; 0x2f
     6d0:	e3a06000 	mov	r6, #0
     6d4:	ef000000 	svc	0x00000000
     6d8:	e8bd80e0 	pop	{r5, r6, r7, pc}

000006dc <utee_storage_start_enum>:
utee_storage_start_enum():
     6dc:	e92d40e0 	push	{r5, r6, r7, lr}
     6e0:	e3a07030 	mov	r7, #48	; 0x30
     6e4:	e3a06000 	mov	r6, #0
     6e8:	ef000000 	svc	0x00000000
     6ec:	e8bd80e0 	pop	{r5, r6, r7, pc}

000006f0 <utee_storage_next_enum>:
utee_storage_next_enum():
     6f0:	e92d40e0 	push	{r5, r6, r7, lr}
     6f4:	e3a07031 	mov	r7, #49	; 0x31
     6f8:	e3a06000 	mov	r6, #0
     6fc:	ef000000 	svc	0x00000000
     700:	e8bd80e0 	pop	{r5, r6, r7, pc}

00000704 <utee_storage_obj_read>:
utee_storage_obj_read():
     704:	e92d40e0 	push	{r5, r6, r7, lr}
     708:	e3a07032 	mov	r7, #50	; 0x32
     70c:	e3a06000 	mov	r6, #0
     710:	ef000000 	svc	0x00000000
     714:	e8bd80e0 	pop	{r5, r6, r7, pc}

00000718 <utee_storage_obj_write>:
utee_storage_obj_write():
     718:	e92d40e0 	push	{r5, r6, r7, lr}
     71c:	e3a07033 	mov	r7, #51	; 0x33
     720:	e3a06000 	mov	r6, #0
     724:	ef000000 	svc	0x00000000
     728:	e8bd80e0 	pop	{r5, r6, r7, pc}

0000072c <utee_storage_obj_trunc>:
utee_storage_obj_trunc():
     72c:	e92d40e0 	push	{r5, r6, r7, lr}
     730:	e3a07034 	mov	r7, #52	; 0x34
     734:	e3a06000 	mov	r6, #0
     738:	ef000000 	svc	0x00000000
     73c:	e8bd80e0 	pop	{r5, r6, r7, pc}

00000740 <utee_storage_obj_seek>:
utee_storage_obj_seek():
     740:	e92d40e0 	push	{r5, r6, r7, lr}
     744:	e3a07035 	mov	r7, #53	; 0x35
     748:	e3a06000 	mov	r6, #0
     74c:	ef000000 	svc	0x00000000
     750:	e8bd80e0 	pop	{r5, r6, r7, pc}

00000754 <utee_cryp_obj_generate_key>:
utee_cryp_obj_generate_key():
     754:	e92d40e0 	push	{r5, r6, r7, lr}
     758:	e3a07036 	mov	r7, #54	; 0x36
     75c:	e3a06000 	mov	r6, #0
     760:	ef000000 	svc	0x00000000
     764:	e8bd80e0 	pop	{r5, r6, r7, pc}

00000768 <utee_se_service_open>:
utee_se_service_open():
     768:	e92d40e0 	push	{r5, r6, r7, lr}
     76c:	e3a07037 	mov	r7, #55	; 0x37
     770:	e3a06000 	mov	r6, #0
     774:	ef000000 	svc	0x00000000
     778:	e8bd80e0 	pop	{r5, r6, r7, pc}

0000077c <utee_se_service_close>:
utee_se_service_close():
     77c:	e92d40e0 	push	{r5, r6, r7, lr}
     780:	e3a07038 	mov	r7, #56	; 0x38
     784:	e3a06000 	mov	r6, #0
     788:	ef000000 	svc	0x00000000
     78c:	e8bd80e0 	pop	{r5, r6, r7, pc}

00000790 <utee_se_service_get_readers>:
utee_se_service_get_readers():
     790:	e92d40e0 	push	{r5, r6, r7, lr}
     794:	e3a07039 	mov	r7, #57	; 0x39
     798:	e3a06000 	mov	r6, #0
     79c:	ef000000 	svc	0x00000000
     7a0:	e8bd80e0 	pop	{r5, r6, r7, pc}

000007a4 <utee_se_reader_get_prop>:
utee_se_reader_get_prop():
     7a4:	e92d40e0 	push	{r5, r6, r7, lr}
     7a8:	e3a0703a 	mov	r7, #58	; 0x3a
     7ac:	e3a06000 	mov	r6, #0
     7b0:	ef000000 	svc	0x00000000
     7b4:	e8bd80e0 	pop	{r5, r6, r7, pc}

000007b8 <utee_se_reader_get_name>:
utee_se_reader_get_name():
     7b8:	e92d40e0 	push	{r5, r6, r7, lr}
     7bc:	e3a0703b 	mov	r7, #59	; 0x3b
     7c0:	e3a06000 	mov	r6, #0
     7c4:	ef000000 	svc	0x00000000
     7c8:	e8bd80e0 	pop	{r5, r6, r7, pc}

000007cc <utee_se_reader_open_session>:
utee_se_reader_open_session():
     7cc:	e92d40e0 	push	{r5, r6, r7, lr}
     7d0:	e3a0703c 	mov	r7, #60	; 0x3c
     7d4:	e3a06000 	mov	r6, #0
     7d8:	ef000000 	svc	0x00000000
     7dc:	e8bd80e0 	pop	{r5, r6, r7, pc}

000007e0 <utee_se_reader_close_sessions>:
utee_se_reader_close_sessions():
     7e0:	e92d40e0 	push	{r5, r6, r7, lr}
     7e4:	e3a0703d 	mov	r7, #61	; 0x3d
     7e8:	e3a06000 	mov	r6, #0
     7ec:	ef000000 	svc	0x00000000
     7f0:	e8bd80e0 	pop	{r5, r6, r7, pc}

000007f4 <utee_se_session_is_closed>:
utee_se_session_is_closed():
     7f4:	e92d40e0 	push	{r5, r6, r7, lr}
     7f8:	e3a0703e 	mov	r7, #62	; 0x3e
     7fc:	e3a06000 	mov	r6, #0
     800:	ef000000 	svc	0x00000000
     804:	e8bd80e0 	pop	{r5, r6, r7, pc}

00000808 <utee_se_session_get_atr>:
utee_se_session_get_atr():
     808:	e92d40e0 	push	{r5, r6, r7, lr}
     80c:	e3a0703f 	mov	r7, #63	; 0x3f
     810:	e3a06000 	mov	r6, #0
     814:	ef000000 	svc	0x00000000
     818:	e8bd80e0 	pop	{r5, r6, r7, pc}

0000081c <utee_se_session_open_channel>:
utee_se_session_open_channel():
     81c:	e92d40e0 	push	{r5, r6, r7, lr}
     820:	e3a07040 	mov	r7, #64	; 0x40
     824:	e3a06001 	mov	r6, #1
     828:	e28d5010 	add	r5, sp, #16
     82c:	ef000000 	svc	0x00000000
     830:	e8bd80e0 	pop	{r5, r6, r7, pc}

00000834 <utee_se_session_close>:
utee_se_session_close():
     834:	e92d40e0 	push	{r5, r6, r7, lr}
     838:	e3a07041 	mov	r7, #65	; 0x41
     83c:	e3a06000 	mov	r6, #0
     840:	ef000000 	svc	0x00000000
     844:	e8bd80e0 	pop	{r5, r6, r7, pc}

00000848 <utee_se_channel_select_next>:
utee_se_channel_select_next():
     848:	e92d40e0 	push	{r5, r6, r7, lr}
     84c:	e3a07042 	mov	r7, #66	; 0x42
     850:	e3a06000 	mov	r6, #0
     854:	ef000000 	svc	0x00000000
     858:	e8bd80e0 	pop	{r5, r6, r7, pc}

0000085c <utee_se_channel_get_select_resp>:
utee_se_channel_get_select_resp():
     85c:	e92d40e0 	push	{r5, r6, r7, lr}
     860:	e3a07043 	mov	r7, #67	; 0x43
     864:	e3a06000 	mov	r6, #0
     868:	ef000000 	svc	0x00000000
     86c:	e8bd80e0 	pop	{r5, r6, r7, pc}

00000870 <utee_se_channel_transmit>:
utee_se_channel_transmit():
     870:	e92d40e0 	push	{r5, r6, r7, lr}
     874:	e3a07044 	mov	r7, #68	; 0x44
     878:	e3a06001 	mov	r6, #1
     87c:	e28d5010 	add	r5, sp, #16
     880:	ef000000 	svc	0x00000000
     884:	e8bd80e0 	pop	{r5, r6, r7, pc}

00000888 <utee_se_channel_close>:
utee_se_channel_close():
     888:	e92d40e0 	push	{r5, r6, r7, lr}
     88c:	e3a07045 	mov	r7, #69	; 0x45
     890:	e3a06000 	mov	r6, #0
     894:	ef000000 	svc	0x00000000
     898:	e8bd80e0 	pop	{r5, r6, r7, pc}

0000089c <utee_cache_operation>:
utee_cache_operation():
     89c:	e92d40e0 	push	{r5, r6, r7, lr}
     8a0:	e3a07046 	mov	r7, #70	; 0x46
     8a4:	e3a06000 	mov	r6, #0
     8a8:	ef000000 	svc	0x00000000
     8ac:	e8bd80e0 	pop	{r5, r6, r7, pc}

000008b0 <_TEE_MathAPI_Init>:
_TEE_MathAPI_Init():
/root/devel/optee/optee_os/lib/libutee/tee_api_arith.c:78
     8b0:	b513      	push	{r0, r1, r4, lr}
/root/devel/optee/optee_os/lib/libutee/tee_api_arith.c:79
     8b2:	f44f 6200 	mov.w	r2, #2048	; 0x800
     8b6:	4808      	ldr	r0, [pc, #32]	; (8d8 <_TEE_MathAPI_Init+0x28>)
     8b8:	f44f 51d8 	mov.w	r1, #6912	; 0x1b00
/root/devel/optee/optee_os/lib/libutee/tee_api_arith.c:78
     8bc:	4c07      	ldr	r4, [pc, #28]	; (8dc <_TEE_MathAPI_Init+0x2c>)
/root/devel/optee/optee_os/lib/libutee/tee_api_arith.c:79
     8be:	4478      	add	r0, pc
     8c0:	f003 fda6 	bl	4410 <mpa_init_scratch_mem>
/root/devel/optee/optee_os/lib/libutee/tee_api_arith.c:81
     8c4:	4b06      	ldr	r3, [pc, #24]	; (8e0 <_TEE_MathAPI_Init+0x30>)
/root/devel/optee/optee_os/lib/libutee/tee_api_arith.c:78
     8c6:	447c      	add	r4, pc
/root/devel/optee/optee_os/lib/libutee/tee_api_arith.c:81
     8c8:	58e3      	ldr	r3, [r4, r3]
     8ca:	4618      	mov	r0, r3
     8cc:	9301      	str	r3, [sp, #4]
/root/devel/optee/optee_os/lib/libutee/tee_api_arith.c:82
     8ce:	b002      	add	sp, #8
     8d0:	e8bd 4010 	ldmia.w	sp!, {r4, lr}
/root/devel/optee/optee_os/lib/libutee/tee_api_arith.c:81
     8d4:	f002 bba0 	b.w	3018 <mpa_set_random_generator>
     8d8:	000067fa 	.word	0x000067fa
     8dc:	00005ffe 	.word	0x00005ffe
     8e0:	00000014 	.word	0x00000014

000008e4 <TEE_BigIntInit>:
TEE_BigIntInit():
/root/devel/optee/optee_os/lib/libutee/tee_api_arith.c:89
     8e4:	f004 bb8a 	b.w	4ffc <mpa_init_static>

000008e8 <TEE_BigIntInitFMM>:
TEE_BigIntInitFMM():
/root/devel/optee/optee_os/lib/libutee/tee_api_arith.c:99
     8e8:	0089      	lsls	r1, r1, #2
/root/devel/optee/optee_os/lib/libutee/tee_api_arith.c:100
     8ea:	2300      	movs	r3, #0
/root/devel/optee/optee_os/lib/libutee/tee_api_arith.c:99
     8ec:	3905      	subs	r1, #5
/root/devel/optee/optee_os/lib/libutee/tee_api_arith.c:100
     8ee:	6043      	str	r3, [r0, #4]
/root/devel/optee/optee_os/lib/libutee/tee_api_arith.c:99
     8f0:	0889      	lsrs	r1, r1, #2
     8f2:	6001      	str	r1, [r0, #0]
/root/devel/optee/optee_os/lib/libutee/tee_api_arith.c:100
     8f4:	4770      	bx	lr

000008f6 <TEE_BigIntInitFMMContext>:
TEE_BigIntInitFMMContext():
/root/devel/optee/optee_os/lib/libutee/tee_api_arith.c:108
     8f6:	b537      	push	{r0, r1, r2, r4, r5, lr}
     8f8:	4604      	mov	r4, r0
     8fa:	4615      	mov	r5, r2
/root/devel/optee/optee_os/lib/libutee/tee_api_arith.c:112
     8fc:	f004 fb87 	bl	500e <mpa_init_static_fmm_context>
/root/devel/optee/optee_os/lib/libutee/tee_api_arith.c:113
     900:	4b05      	ldr	r3, [pc, #20]	; (918 <TEE_BigIntInitFMMContext+0x22>)
     902:	4628      	mov	r0, r5
     904:	e9d4 1200 	ldrd	r1, r2, [r4]
     908:	447b      	add	r3, pc
     90a:	9300      	str	r3, [sp, #0]
     90c:	f104 0308 	add.w	r3, r4, #8
     910:	f002 f9c2 	bl	2c98 <mpa_compute_fmm_context>
/root/devel/optee/optee_os/lib/libutee/tee_api_arith.c:116
     914:	b003      	add	sp, #12
     916:	bd30      	pop	{r4, r5, pc}
     918:	000067b0 	.word	0x000067b0

0000091c <TEE_BigIntFMMSizeInU32>:
TEE_BigIntFMMSizeInU32():
/root/devel/optee/optee_os/lib/libutee/tee_api_arith.c:127
     91c:	301f      	adds	r0, #31
     91e:	0940      	lsrs	r0, r0, #5
/root/devel/optee/optee_os/lib/libutee/tee_api_arith.c:128
     920:	3003      	adds	r0, #3
     922:	4770      	bx	lr

00000924 <TEE_BigIntFMMContextSizeInU32>:
TEE_BigIntFMMContextSizeInU32():
/root/devel/optee/optee_os/lib/libutee/tee_api_arith.c:135
     924:	301f      	adds	r0, #31
     926:	0940      	lsrs	r0, r0, #5
     928:	0040      	lsls	r0, r0, #1
/root/devel/optee/optee_os/lib/libutee/tee_api_arith.c:136
     92a:	300b      	adds	r0, #11
     92c:	4770      	bx	lr

0000092e <TEE_BigIntConvertFromOctetString>:
TEE_BigIntConvertFromOctetString():
/root/devel/optee/optee_os/lib/libutee/tee_api_arith.c:149
     92e:	b508      	push	{r3, lr}
/root/devel/optee/optee_os/lib/libutee/tee_api_arith.c:154
     930:	0fdb      	lsrs	r3, r3, #31
     932:	f002 fdbd 	bl	34b0 <mpa_set_oct_str>
     936:	2800      	cmp	r0, #0
/root/devel/optee/optee_os/lib/libutee/tee_api_arith.c:164
     938:	4801      	ldr	r0, [pc, #4]	; (940 <TEE_BigIntConvertFromOctetString+0x12>)
     93a:	bf08      	it	eq
     93c:	2000      	moveq	r0, #0
     93e:	bd08      	pop	{r3, pc}
     940:	ffff300f 	.word	0xffff300f

00000944 <TEE_BigIntConvertToOctetString>:
TEE_BigIntConvertToOctetString():
/root/devel/optee/optee_os/lib/libutee/tee_api_arith.c:174
     944:	680b      	ldr	r3, [r1, #0]
/root/devel/optee/optee_os/lib/libutee/tee_api_arith.c:172
     946:	b530      	push	{r4, r5, lr}
     948:	b085      	sub	sp, #20
     94a:	460d      	mov	r5, r1
/root/devel/optee/optee_os/lib/libutee/tee_api_arith.c:174
     94c:	a904      	add	r1, sp, #16
     94e:	f841 3d04 	str.w	r3, [r1, #-4]!
/root/devel/optee/optee_os/lib/libutee/tee_api_arith.c:177
     952:	f002 fdfa 	bl	354a <mpa_get_oct_str>
/root/devel/optee/optee_os/lib/libutee/tee_api_arith.c:180
     956:	4b0e      	ldr	r3, [pc, #56]	; (990 <TEE_BigIntConvertToOctetString+0x4c>)
     958:	2800      	cmp	r0, #0
/root/devel/optee/optee_os/lib/libutee/tee_api_arith.c:182
     95a:	9a03      	ldr	r2, [sp, #12]
/root/devel/optee/optee_os/lib/libutee/tee_api_arith.c:180
     95c:	bf0c      	ite	eq
     95e:	2400      	moveq	r4, #0
     960:	461c      	movne	r4, r3
/root/devel/optee/optee_os/lib/libutee/tee_api_arith.c:182
     962:	602a      	str	r2, [r5, #0]
/root/devel/optee/optee_os/lib/libutee/tee_api_arith.c:184
     964:	b184      	cbz	r4, 988 <TEE_BigIntConvertToOctetString+0x44>
/root/devel/optee/optee_os/lib/libutee/tee_api_arith.c:184 (discriminator 1)
     966:	429c      	cmp	r4, r3
     968:	d00e      	beq.n	988 <TEE_BigIntConvertToOctetString+0x44>
/root/devel/optee/optee_os/lib/libutee/tee_api_arith.c:186
     96a:	4b0a      	ldr	r3, [pc, #40]	; (994 <TEE_BigIntConvertToOctetString+0x50>)
     96c:	9401      	str	r4, [sp, #4]
     96e:	21ba      	movs	r1, #186	; 0xba
     970:	4809      	ldr	r0, [pc, #36]	; (998 <TEE_BigIntConvertToOctetString+0x54>)
     972:	447b      	add	r3, pc
     974:	4478      	add	r0, pc
     976:	9300      	str	r3, [sp, #0]
     978:	2301      	movs	r3, #1
     97a:	3011      	adds	r0, #17
     97c:	461a      	mov	r2, r3
     97e:	f001 ff29 	bl	27d4 <trace_printf>
     982:	4620      	mov	r0, r4
     984:	f002 fe4c 	bl	3620 <__TEE_Panic>
/root/devel/optee/optee_os/lib/libutee/tee_api_arith.c:189
     988:	4620      	mov	r0, r4
     98a:	b005      	add	sp, #20
     98c:	bd30      	pop	{r4, r5, pc}
     98e:	bf00      	nop
     990:	ffff0010 	.word	0xffff0010
     994:	00005747 	.word	0x00005747
     998:	00005750 	.word	0x00005750

0000099c <TEE_BigIntConvertFromS32>:
TEE_BigIntConvertFromS32():
/root/devel/optee/optee_os/lib/libutee/tee_api_arith.c:199
     99c:	f002 bf75 	b.w	388a <mpa_set_S32>

000009a0 <TEE_BigIntConvertToS32>:
TEE_BigIntConvertToS32():
/root/devel/optee/optee_os/lib/libutee/tee_api_arith.c:209
     9a0:	b508      	push	{r3, lr}
/root/devel/optee/optee_os/lib/libutee/tee_api_arith.c:213
     9a2:	f002 ff80 	bl	38a6 <mpa_get_S32>
     9a6:	2800      	cmp	r0, #0
/root/devel/optee/optee_os/lib/libutee/tee_api_arith.c:223
     9a8:	4801      	ldr	r0, [pc, #4]	; (9b0 <TEE_BigIntConvertToS32+0x10>)
     9aa:	bf08      	it	eq
     9ac:	2000      	moveq	r0, #0
     9ae:	bd08      	pop	{r3, pc}
     9b0:	ffff300f 	.word	0xffff300f

000009b4 <TEE_BigIntCmp>:
TEE_BigIntCmp():
/root/devel/optee/optee_os/lib/libutee/tee_api_arith.c:237
     9b4:	f004 bad3 	b.w	4f5e <mpa_cmp>

000009b8 <TEE_BigIntCmpS32>:
TEE_BigIntCmpS32():
/root/devel/optee/optee_os/lib/libutee/tee_api_arith.c:247
     9b8:	f004 baf4 	b.w	4fa4 <mpa_cmp_short>

000009bc <TEE_BigIntShiftRight>:
TEE_BigIntShiftRight():
/root/devel/optee/optee_os/lib/libutee/tee_api_arith.c:259
     9bc:	f003 bf55 	b.w	486a <mpa_shift_right>

000009c0 <TEE_BigIntGetBit>:
TEE_BigIntGetBit():
/root/devel/optee/optee_os/lib/libutee/tee_api_arith.c:266
     9c0:	b508      	push	{r3, lr}
/root/devel/optee/optee_os/lib/libutee/tee_api_arith.c:269
     9c2:	f002 f88c 	bl	2ade <mpa_get_bit>
/root/devel/optee/optee_os/lib/libutee/tee_api_arith.c:270
     9c6:	3000      	adds	r0, #0
     9c8:	bf18      	it	ne
     9ca:	2001      	movne	r0, #1
     9cc:	bd08      	pop	{r3, pc}

000009ce <TEE_BigIntGetBitCount>:
TEE_BigIntGetBitCount():
/root/devel/optee/optee_os/lib/libutee/tee_api_arith.c:276
     9ce:	b508      	push	{r3, lr}
/root/devel/optee/optee_os/lib/libutee/tee_api_arith.c:279
     9d0:	f002 f86f 	bl	2ab2 <mpa_highest_bit_index>
/root/devel/optee/optee_os/lib/libutee/tee_api_arith.c:280
     9d4:	3001      	adds	r0, #1
     9d6:	bd08      	pop	{r3, pc}

000009d8 <TEE_BigIntAdd>:
TEE_BigIntAdd():
/root/devel/optee/optee_os/lib/libutee/tee_api_arith.c:296
     9d8:	4b01      	ldr	r3, [pc, #4]	; (9e0 <TEE_BigIntAdd+0x8>)
     9da:	447b      	add	r3, pc
     9dc:	f004 b8b4 	b.w	4b48 <mpa_add>
     9e0:	000066de 	.word	0x000066de

000009e4 <TEE_BigIntSub>:
TEE_BigIntSub():
/root/devel/optee/optee_os/lib/libutee/tee_api_arith.c:309
     9e4:	4b01      	ldr	r3, [pc, #4]	; (9ec <TEE_BigIntSub+0x8>)
     9e6:	447b      	add	r3, pc
     9e8:	f004 b929 	b.w	4c3e <mpa_sub>
     9ec:	000066d2 	.word	0x000066d2

000009f0 <TEE_BigIntNeg>:
TEE_BigIntNeg():
/root/devel/optee/optee_os/lib/libutee/tee_api_arith.c:320
     9f0:	f004 b9a8 	b.w	4d44 <mpa_neg>

000009f4 <TEE_BigIntMul>:
TEE_BigIntMul():
/root/devel/optee/optee_os/lib/libutee/tee_api_arith.c:333
     9f4:	4b01      	ldr	r3, [pc, #4]	; (9fc <TEE_BigIntMul+0x8>)
     9f6:	447b      	add	r3, pc
     9f8:	f003 bdf3 	b.w	45e2 <mpa_mul>
     9fc:	000066c2 	.word	0x000066c2

00000a00 <TEE_BigIntSquare>:
TEE_BigIntSquare():
/root/devel/optee/optee_os/lib/libutee/tee_api_arith.c:344
     a00:	4b02      	ldr	r3, [pc, #8]	; (a0c <TEE_BigIntSquare+0xc>)
     a02:	460a      	mov	r2, r1
     a04:	447b      	add	r3, pc
     a06:	f003 bdec 	b.w	45e2 <mpa_mul>
     a0a:	bf00      	nop
     a0c:	000066b4 	.word	0x000066b4

00000a10 <TEE_BigIntDiv>:
TEE_BigIntDiv():
/root/devel/optee/optee_os/lib/libutee/tee_api_arith.c:352
     a10:	b5f7      	push	{r0, r1, r2, r4, r5, r6, r7, lr}
     a12:	4605      	mov	r5, r0
     a14:	460e      	mov	r6, r1
TEE_BigIntCmpS32():
/root/devel/optee/optee_os/lib/libutee/tee_api_arith.c:247
     a16:	4618      	mov	r0, r3
     a18:	2100      	movs	r1, #0
TEE_BigIntDiv():
/root/devel/optee/optee_os/lib/libutee/tee_api_arith.c:352
     a1a:	4617      	mov	r7, r2
     a1c:	461c      	mov	r4, r3
TEE_BigIntCmpS32():
/root/devel/optee/optee_os/lib/libutee/tee_api_arith.c:247
     a1e:	f004 fac1 	bl	4fa4 <mpa_cmp_short>
TEE_BigIntDiv():
/root/devel/optee/optee_os/lib/libutee/tee_api_arith.c:358
     a22:	b918      	cbnz	r0, a2c <TEE_BigIntDiv+0x1c>
/root/devel/optee/optee_os/lib/libutee/tee_api_arith.c:359
     a24:	4807      	ldr	r0, [pc, #28]	; (a44 <TEE_BigIntDiv+0x34>)
     a26:	4478      	add	r0, pc
     a28:	f000 f982 	bl	d30 <TEE_BigInt_Panic>
/root/devel/optee/optee_os/lib/libutee/tee_api_arith.c:361
     a2c:	4b06      	ldr	r3, [pc, #24]	; (a48 <TEE_BigIntDiv+0x38>)
     a2e:	463a      	mov	r2, r7
     a30:	4631      	mov	r1, r6
     a32:	4628      	mov	r0, r5
     a34:	447b      	add	r3, pc
     a36:	9300      	str	r3, [sp, #0]
     a38:	4623      	mov	r3, r4
     a3a:	f003 f9f0 	bl	3e1e <mpa_div>
/root/devel/optee/optee_os/lib/libutee/tee_api_arith.c:362
     a3e:	b003      	add	sp, #12
     a40:	bdf0      	pop	{r4, r5, r6, r7, pc}
     a42:	bf00      	nop
     a44:	000056d9 	.word	0x000056d9
     a48:	00006684 	.word	0x00006684

00000a4c <TEE_BigIntMod>:
TEE_BigIntMod():
/root/devel/optee/optee_os/lib/libutee/tee_api_arith.c:373
     a4c:	e92d 41f0 	stmdb	sp!, {r4, r5, r6, r7, r8, lr}
     a50:	4604      	mov	r4, r0
     a52:	460f      	mov	r7, r1
TEE_BigIntCmpS32():
/root/devel/optee/optee_os/lib/libutee/tee_api_arith.c:247
     a54:	4610      	mov	r0, r2
     a56:	2102      	movs	r1, #2
TEE_BigIntMod():
/root/devel/optee/optee_os/lib/libutee/tee_api_arith.c:373
     a58:	4615      	mov	r5, r2
TEE_BigIntCmpS32():
/root/devel/optee/optee_os/lib/libutee/tee_api_arith.c:247
     a5a:	f004 faa3 	bl	4fa4 <mpa_cmp_short>
TEE_BigIntMod():
/root/devel/optee/optee_os/lib/libutee/tee_api_arith.c:378
     a5e:	2800      	cmp	r0, #0
     a60:	da03      	bge.n	a6a <TEE_BigIntMod+0x1e>
/root/devel/optee/optee_os/lib/libutee/tee_api_arith.c:379
     a62:	480e      	ldr	r0, [pc, #56]	; (a9c <TEE_BigIntMod+0x50>)
     a64:	4478      	add	r0, pc
     a66:	f000 f963 	bl	d30 <TEE_BigInt_Panic>
/root/devel/optee/optee_os/lib/libutee/tee_api_arith.c:381
     a6a:	4e0d      	ldr	r6, [pc, #52]	; (aa0 <TEE_BigIntMod+0x54>)
     a6c:	462a      	mov	r2, r5
     a6e:	4639      	mov	r1, r7
     a70:	4620      	mov	r0, r4
     a72:	447e      	add	r6, pc
     a74:	4633      	mov	r3, r6
     a76:	f004 fae6 	bl	5046 <mpa_mod>
/root/devel/optee/optee_os/lib/libutee/tee_api_arith.c:383
     a7a:	2100      	movs	r1, #0
     a7c:	4620      	mov	r0, r4
     a7e:	f004 fa91 	bl	4fa4 <mpa_cmp_short>
     a82:	2800      	cmp	r0, #0
     a84:	da07      	bge.n	a96 <TEE_BigIntMod+0x4a>
/root/devel/optee/optee_os/lib/libutee/tee_api_arith.c:384
     a86:	4633      	mov	r3, r6
     a88:	462a      	mov	r2, r5
     a8a:	4621      	mov	r1, r4
     a8c:	4620      	mov	r0, r4
/root/devel/optee/optee_os/lib/libutee/tee_api_arith.c:385
     a8e:	e8bd 41f0 	ldmia.w	sp!, {r4, r5, r6, r7, r8, lr}
/root/devel/optee/optee_os/lib/libutee/tee_api_arith.c:384
     a92:	f004 b859 	b.w	4b48 <mpa_add>
     a96:	e8bd 81f0 	ldmia.w	sp!, {r4, r5, r6, r7, r8, pc}
     a9a:	bf00      	nop
     a9c:	000056ab 	.word	0x000056ab
     aa0:	00006646 	.word	0x00006646

00000aa4 <TEE_BigIntAddMod>:
TEE_BigIntAddMod():
/root/devel/optee/optee_os/lib/libutee/tee_api_arith.c:392
     aa4:	e92d 41f3 	stmdb	sp!, {r0, r1, r4, r5, r6, r7, r8, lr}
     aa8:	4604      	mov	r4, r0
     aaa:	460f      	mov	r7, r1
TEE_BigIntCmpS32():
/root/devel/optee/optee_os/lib/libutee/tee_api_arith.c:247
     aac:	4618      	mov	r0, r3
     aae:	2102      	movs	r1, #2
TEE_BigIntAddMod():
/root/devel/optee/optee_os/lib/libutee/tee_api_arith.c:392
     ab0:	4690      	mov	r8, r2
     ab2:	461d      	mov	r5, r3
TEE_BigIntCmpS32():
/root/devel/optee/optee_os/lib/libutee/tee_api_arith.c:247
     ab4:	f004 fa76 	bl	4fa4 <mpa_cmp_short>
TEE_BigIntAddMod():
/root/devel/optee/optee_os/lib/libutee/tee_api_arith.c:398
     ab8:	2800      	cmp	r0, #0
     aba:	da03      	bge.n	ac4 <TEE_BigIntAddMod+0x20>
/root/devel/optee/optee_os/lib/libutee/tee_api_arith.c:399
     abc:	480f      	ldr	r0, [pc, #60]	; (afc <TEE_BigIntAddMod+0x58>)
     abe:	4478      	add	r0, pc
     ac0:	f000 f936 	bl	d30 <TEE_BigInt_Panic>
/root/devel/optee/optee_os/lib/libutee/tee_api_arith.c:401
     ac4:	4e0e      	ldr	r6, [pc, #56]	; (b00 <TEE_BigIntAddMod+0x5c>)
     ac6:	462b      	mov	r3, r5
     ac8:	4642      	mov	r2, r8
     aca:	4639      	mov	r1, r7
     acc:	4620      	mov	r0, r4
     ace:	447e      	add	r6, pc
     ad0:	9600      	str	r6, [sp, #0]
     ad2:	f004 fac3 	bl	505c <mpa_add_mod>
/root/devel/optee/optee_os/lib/libutee/tee_api_arith.c:402
     ad6:	2100      	movs	r1, #0
     ad8:	4620      	mov	r0, r4
     ada:	f004 fa63 	bl	4fa4 <mpa_cmp_short>
     ade:	2800      	cmp	r0, #0
     ae0:	da08      	bge.n	af4 <TEE_BigIntAddMod+0x50>
/root/devel/optee/optee_os/lib/libutee/tee_api_arith.c:403
     ae2:	4633      	mov	r3, r6
     ae4:	462a      	mov	r2, r5
     ae6:	4621      	mov	r1, r4
     ae8:	4620      	mov	r0, r4
/root/devel/optee/optee_os/lib/libutee/tee_api_arith.c:404
     aea:	b002      	add	sp, #8
     aec:	e8bd 41f0 	ldmia.w	sp!, {r4, r5, r6, r7, r8, lr}
/root/devel/optee/optee_os/lib/libutee/tee_api_arith.c:403
     af0:	f004 b82a 	b.w	4b48 <mpa_add>
/root/devel/optee/optee_os/lib/libutee/tee_api_arith.c:404
     af4:	b002      	add	sp, #8
     af6:	e8bd 81f0 	ldmia.w	sp!, {r4, r5, r6, r7, r8, pc}
     afa:	bf00      	nop
     afc:	00005651 	.word	0x00005651
     b00:	000065ea 	.word	0x000065ea

00000b04 <TEE_BigIntSubMod>:
TEE_BigIntSubMod():
/root/devel/optee/optee_os/lib/libutee/tee_api_arith.c:411
     b04:	e92d 41f3 	stmdb	sp!, {r0, r1, r4, r5, r6, r7, r8, lr}
     b08:	4604      	mov	r4, r0
     b0a:	460f      	mov	r7, r1
TEE_BigIntCmpS32():
/root/devel/optee/optee_os/lib/libutee/tee_api_arith.c:247
     b0c:	4618      	mov	r0, r3
     b0e:	2102      	movs	r1, #2
TEE_BigIntSubMod():
/root/devel/optee/optee_os/lib/libutee/tee_api_arith.c:411
     b10:	4690      	mov	r8, r2
     b12:	461d      	mov	r5, r3
TEE_BigIntCmpS32():
/root/devel/optee/optee_os/lib/libutee/tee_api_arith.c:247
     b14:	f004 fa46 	bl	4fa4 <mpa_cmp_short>
TEE_BigIntSubMod():
/root/devel/optee/optee_os/lib/libutee/tee_api_arith.c:417
     b18:	2800      	cmp	r0, #0
     b1a:	da03      	bge.n	b24 <TEE_BigIntSubMod+0x20>
/root/devel/optee/optee_os/lib/libutee/tee_api_arith.c:418
     b1c:	480f      	ldr	r0, [pc, #60]	; (b5c <TEE_BigIntSubMod+0x58>)
     b1e:	4478      	add	r0, pc
     b20:	f000 f906 	bl	d30 <TEE_BigInt_Panic>
/root/devel/optee/optee_os/lib/libutee/tee_api_arith.c:420
     b24:	4e0e      	ldr	r6, [pc, #56]	; (b60 <TEE_BigIntSubMod+0x5c>)
     b26:	462b      	mov	r3, r5
     b28:	4642      	mov	r2, r8
     b2a:	4639      	mov	r1, r7
     b2c:	4620      	mov	r0, r4
     b2e:	447e      	add	r6, pc
     b30:	9600      	str	r6, [sp, #0]
     b32:	f004 fab4 	bl	509e <mpa_sub_mod>
/root/devel/optee/optee_os/lib/libutee/tee_api_arith.c:421
     b36:	2100      	movs	r1, #0
     b38:	4620      	mov	r0, r4
     b3a:	f004 fa33 	bl	4fa4 <mpa_cmp_short>
     b3e:	2800      	cmp	r0, #0
     b40:	da08      	bge.n	b54 <TEE_BigIntSubMod+0x50>
/root/devel/optee/optee_os/lib/libutee/tee_api_arith.c:422
     b42:	4633      	mov	r3, r6
     b44:	462a      	mov	r2, r5
     b46:	4621      	mov	r1, r4
     b48:	4620      	mov	r0, r4
/root/devel/optee/optee_os/lib/libutee/tee_api_arith.c:423
     b4a:	b002      	add	sp, #8
     b4c:	e8bd 41f0 	ldmia.w	sp!, {r4, r5, r6, r7, r8, lr}
/root/devel/optee/optee_os/lib/libutee/tee_api_arith.c:422
     b50:	f003 bffa 	b.w	4b48 <mpa_add>
/root/devel/optee/optee_os/lib/libutee/tee_api_arith.c:423
     b54:	b002      	add	sp, #8
     b56:	e8bd 81f0 	ldmia.w	sp!, {r4, r5, r6, r7, r8, pc}
     b5a:	bf00      	nop
     b5c:	000055f1 	.word	0x000055f1
     b60:	0000658a 	.word	0x0000658a

00000b64 <TEE_BigIntMulMod>:
TEE_BigIntMulMod():
/root/devel/optee/optee_os/lib/libutee/tee_api_arith.c:430
     b64:	e92d 43f0 	stmdb	sp!, {r4, r5, r6, r7, r8, r9, lr}
     b68:	4607      	mov	r7, r0
     b6a:	b085      	sub	sp, #20
     b6c:	4688      	mov	r8, r1
TEE_BigIntCmpS32():
/root/devel/optee/optee_os/lib/libutee/tee_api_arith.c:247
     b6e:	4618      	mov	r0, r3
     b70:	2102      	movs	r1, #2
TEE_BigIntMulMod():
/root/devel/optee/optee_os/lib/libutee/tee_api_arith.c:430
     b72:	4691      	mov	r9, r2
     b74:	461c      	mov	r4, r3
TEE_BigIntCmpS32():
/root/devel/optee/optee_os/lib/libutee/tee_api_arith.c:247
     b76:	f004 fa15 	bl	4fa4 <mpa_cmp_short>
TEE_BigIntMulMod():
/root/devel/optee/optee_os/lib/libutee/tee_api_arith.c:437
     b7a:	2800      	cmp	r0, #0
     b7c:	da03      	bge.n	b86 <TEE_BigIntMulMod+0x22>
/root/devel/optee/optee_os/lib/libutee/tee_api_arith.c:438
     b7e:	4815      	ldr	r0, [pc, #84]	; (bd4 <TEE_BigIntMulMod+0x70>)
     b80:	4478      	add	r0, pc
     b82:	f000 f8d5 	bl	d30 <TEE_BigInt_Panic>
/root/devel/optee/optee_os/lib/libutee/tee_api_arith.c:448
     b86:	4d14      	ldr	r5, [pc, #80]	; (bd8 <TEE_BigIntMulMod+0x74>)
     b88:	ae03      	add	r6, sp, #12
     b8a:	4630      	mov	r0, r6
     b8c:	447d      	add	r5, pc
     b8e:	4629      	mov	r1, r5
     b90:	f003 fc82 	bl	4498 <mpa_alloc_static_temp_var>
/root/devel/optee/optee_os/lib/libutee/tee_api_arith.c:449
     b94:	4623      	mov	r3, r4
     b96:	464a      	mov	r2, r9
     b98:	9803      	ldr	r0, [sp, #12]
     b9a:	4641      	mov	r1, r8
     b9c:	9500      	str	r5, [sp, #0]
     b9e:	f004 fa9f 	bl	50e0 <mpa_mul_mod>
/root/devel/optee/optee_os/lib/libutee/tee_api_arith.c:450
     ba2:	2100      	movs	r1, #0
     ba4:	9803      	ldr	r0, [sp, #12]
     ba6:	f004 f9fd 	bl	4fa4 <mpa_cmp_short>
     baa:	2800      	cmp	r0, #0
     bac:	da05      	bge.n	bba <TEE_BigIntMulMod+0x56>
/root/devel/optee/optee_os/lib/libutee/tee_api_arith.c:451
     bae:	9903      	ldr	r1, [sp, #12]
     bb0:	462b      	mov	r3, r5
     bb2:	4622      	mov	r2, r4
     bb4:	4608      	mov	r0, r1
     bb6:	f003 ffc7 	bl	4b48 <mpa_add>
/root/devel/optee/optee_os/lib/libutee/tee_api_arith.c:452
     bba:	9903      	ldr	r1, [sp, #12]
     bbc:	4638      	mov	r0, r7
     bbe:	f001 ff5d 	bl	2a7c <mpa_copy>
/root/devel/optee/optee_os/lib/libutee/tee_api_arith.c:453
     bc2:	4906      	ldr	r1, [pc, #24]	; (bdc <TEE_BigIntMulMod+0x78>)
     bc4:	4630      	mov	r0, r6
     bc6:	4479      	add	r1, pc
     bc8:	f003 fc6b 	bl	44a2 <mpa_free_static_temp_var>
/root/devel/optee/optee_os/lib/libutee/tee_api_arith.c:454
     bcc:	b005      	add	sp, #20
     bce:	e8bd 83f0 	ldmia.w	sp!, {r4, r5, r6, r7, r8, r9, pc}
     bd2:	bf00      	nop
     bd4:	0000558f 	.word	0x0000558f
     bd8:	0000652c 	.word	0x0000652c
     bdc:	000064f2 	.word	0x000064f2

00000be0 <TEE_BigIntSquareMod>:
TEE_BigIntSquareMod():
/root/devel/optee/optee_os/lib/libutee/tee_api_arith.c:462
     be0:	4613      	mov	r3, r2
     be2:	460a      	mov	r2, r1
     be4:	f7ff bfbe 	b.w	b64 <TEE_BigIntMulMod>

00000be8 <TEE_BigIntInvMod>:
TEE_BigIntInvMod():
/root/devel/optee/optee_os/lib/libutee/tee_api_arith.c:470
     be8:	b570      	push	{r4, r5, r6, lr}
     bea:	4606      	mov	r6, r0
     bec:	460c      	mov	r4, r1
TEE_BigIntCmpS32():
/root/devel/optee/optee_os/lib/libutee/tee_api_arith.c:247
     bee:	4610      	mov	r0, r2
     bf0:	2102      	movs	r1, #2
TEE_BigIntInvMod():
/root/devel/optee/optee_os/lib/libutee/tee_api_arith.c:470
     bf2:	4615      	mov	r5, r2
TEE_BigIntCmpS32():
/root/devel/optee/optee_os/lib/libutee/tee_api_arith.c:247
     bf4:	f004 f9d6 	bl	4fa4 <mpa_cmp_short>
TEE_BigIntInvMod():
/root/devel/optee/optee_os/lib/libutee/tee_api_arith.c:475
     bf8:	2800      	cmp	r0, #0
     bfa:	da03      	bge.n	c04 <TEE_BigIntInvMod+0x1c>
/root/devel/optee/optee_os/lib/libutee/tee_api_arith.c:476
     bfc:	4809      	ldr	r0, [pc, #36]	; (c24 <TEE_BigIntInvMod+0x3c>)
     bfe:	4478      	add	r0, pc
     c00:	f000 f896 	bl	d30 <TEE_BigInt_Panic>
TEE_BigIntCmpS32():
/root/devel/optee/optee_os/lib/libutee/tee_api_arith.c:247
     c04:	2100      	movs	r1, #0
     c06:	4620      	mov	r0, r4
     c08:	f004 f9cc 	bl	4fa4 <mpa_cmp_short>
TEE_BigIntInvMod():
/root/devel/optee/optee_os/lib/libutee/tee_api_arith.c:475
     c0c:	2800      	cmp	r0, #0
     c0e:	d0f5      	beq.n	bfc <TEE_BigIntInvMod+0x14>
/root/devel/optee/optee_os/lib/libutee/tee_api_arith.c:478
     c10:	4b05      	ldr	r3, [pc, #20]	; (c28 <TEE_BigIntInvMod+0x40>)
     c12:	462a      	mov	r2, r5
     c14:	4621      	mov	r1, r4
     c16:	4630      	mov	r0, r6
/root/devel/optee/optee_os/lib/libutee/tee_api_arith.c:479
     c18:	e8bd 4070 	ldmia.w	sp!, {r4, r5, r6, lr}
/root/devel/optee/optee_os/lib/libutee/tee_api_arith.c:478
     c1c:	447b      	add	r3, pc
     c1e:	f004 ba80 	b.w	5122 <mpa_inv_mod>
     c22:	bf00      	nop
     c24:	00005526 	.word	0x00005526
     c28:	0000649c 	.word	0x0000649c

00000c2c <TEE_BigIntRelativePrime>:
TEE_BigIntRelativePrime():
/root/devel/optee/optee_os/lib/libutee/tee_api_arith.c:489
     c2c:	b5f7      	push	{r0, r1, r2, r4, r5, r6, r7, lr}
/root/devel/optee/optee_os/lib/libutee/tee_api_arith.c:495
     c2e:	ad01      	add	r5, sp, #4
     c30:	4c0d      	ldr	r4, [pc, #52]	; (c68 <TEE_BigIntRelativePrime+0x3c>)
/root/devel/optee/optee_os/lib/libutee/tee_api_arith.c:489
     c32:	4606      	mov	r6, r0
     c34:	460f      	mov	r7, r1
/root/devel/optee/optee_os/lib/libutee/tee_api_arith.c:495
     c36:	4628      	mov	r0, r5
     c38:	447c      	add	r4, pc
     c3a:	4621      	mov	r1, r4
     c3c:	f003 fc2c 	bl	4498 <mpa_alloc_static_temp_var>
/root/devel/optee/optee_os/lib/libutee/tee_api_arith.c:497
     c40:	4623      	mov	r3, r4
     c42:	463a      	mov	r2, r7
     c44:	9801      	ldr	r0, [sp, #4]
     c46:	4631      	mov	r1, r6
     c48:	f003 fae4 	bl	4214 <mpa_gcd>
/root/devel/optee/optee_os/lib/libutee/tee_api_arith.c:498
     c4c:	2101      	movs	r1, #1
     c4e:	9801      	ldr	r0, [sp, #4]
     c50:	f004 f9a8 	bl	4fa4 <mpa_cmp_short>
     c54:	4606      	mov	r6, r0
/root/devel/optee/optee_os/lib/libutee/tee_api_arith.c:500
     c56:	4621      	mov	r1, r4
     c58:	4628      	mov	r0, r5
     c5a:	f003 fc22 	bl	44a2 <mpa_free_static_temp_var>
/root/devel/optee/optee_os/lib/libutee/tee_api_arith.c:503
     c5e:	fab6 f086 	clz	r0, r6
     c62:	0940      	lsrs	r0, r0, #5
     c64:	b003      	add	sp, #12
     c66:	bdf0      	pop	{r4, r5, r6, r7, pc}
     c68:	00006480 	.word	0x00006480

00000c6c <TEE_BigIntComputeExtendedGcd>:
TEE_BigIntComputeExtendedGcd():
/root/devel/optee/optee_os/lib/libutee/tee_api_arith.c:511
     c6c:	b513      	push	{r0, r1, r4, lr}
/root/devel/optee/optee_os/lib/libutee/tee_api_arith.c:518
     c6e:	4c04      	ldr	r4, [pc, #16]	; (c80 <TEE_BigIntComputeExtendedGcd+0x14>)
     c70:	447c      	add	r4, pc
     c72:	9401      	str	r4, [sp, #4]
     c74:	9c04      	ldr	r4, [sp, #16]
     c76:	9400      	str	r4, [sp, #0]
     c78:	f003 fb20 	bl	42bc <mpa_extended_gcd>
/root/devel/optee/optee_os/lib/libutee/tee_api_arith.c:519
     c7c:	b002      	add	sp, #8
     c7e:	bd10      	pop	{r4, pc}
     c80:	00006448 	.word	0x00006448

00000c84 <TEE_BigIntIsProbablePrime>:
TEE_BigIntIsProbablePrime():
/root/devel/optee/optee_os/lib/libutee/tee_api_arith.c:529
     c84:	294f      	cmp	r1, #79	; 0x4f
     c86:	d905      	bls.n	c94 <TEE_BigIntIsProbablePrime+0x10>
/root/devel/optee/optee_os/lib/libutee/tee_api_arith.c:532
     c88:	f5b1 7f80 	cmp.w	r1, #256	; 0x100
/root/devel/optee/optee_os/lib/libutee/tee_api_arith.c:533
     c8c:	bf88      	it	hi
     c8e:	f44f 7180 	movhi.w	r1, #256	; 0x100
     c92:	e000      	b.n	c96 <TEE_BigIntIsProbablePrime+0x12>
/root/devel/optee/optee_os/lib/libutee/tee_api_arith.c:530
     c94:	2150      	movs	r1, #80	; 0x50
/root/devel/optee/optee_os/lib/libutee/tee_api_arith.c:535
     c96:	4a02      	ldr	r2, [pc, #8]	; (ca0 <TEE_BigIntIsProbablePrime+0x1c>)
     c98:	447a      	add	r2, pc
     c9a:	f002 b883 	b.w	2da4 <mpa_is_prob_prime>
     c9e:	bf00      	nop
     ca0:	00006420 	.word	0x00006420

00000ca4 <TEE_BigIntConvertToFMM>:
TEE_BigIntConvertToFMM():
/root/devel/optee/optee_os/lib/libutee/tee_api_arith.c:549
     ca4:	b513      	push	{r0, r1, r4, lr}
     ca6:	461c      	mov	r4, r3
/root/devel/optee/optee_os/lib/libutee/tee_api_arith.c:556
     ca8:	4b05      	ldr	r3, [pc, #20]	; (cc0 <TEE_BigIntConvertToFMM+0x1c>)
     caa:	447b      	add	r3, pc
     cac:	9301      	str	r3, [sp, #4]
     cae:	68a3      	ldr	r3, [r4, #8]
     cb0:	9300      	str	r3, [sp, #0]
     cb2:	4613      	mov	r3, r2
     cb4:	6862      	ldr	r2, [r4, #4]
     cb6:	f002 f857 	bl	2d68 <mpa_montgomery_mul>
/root/devel/optee/optee_os/lib/libutee/tee_api_arith.c:558
     cba:	b002      	add	sp, #8
     cbc:	bd10      	pop	{r4, pc}
     cbe:	bf00      	nop
     cc0:	0000640e 	.word	0x0000640e

00000cc4 <TEE_BigIntConvertFromFMM>:
TEE_BigIntConvertFromFMM():
/root/devel/optee/optee_os/lib/libutee/tee_api_arith.c:567
     cc4:	e92d 47ff 	stmdb	sp!, {r0, r1, r2, r3, r4, r5, r6, r7, r8, r9, sl, lr}
/root/devel/optee/optee_os/lib/libutee/tee_api_arith.c:579
     cc8:	ad03      	add	r5, sp, #12
     cca:	4c11      	ldr	r4, [pc, #68]	; (d10 <TEE_BigIntConvertFromFMM+0x4c>)
/root/devel/optee/optee_os/lib/libutee/tee_api_arith.c:567
     ccc:	469a      	mov	sl, r3
     cce:	4606      	mov	r6, r0
     cd0:	4688      	mov	r8, r1
/root/devel/optee/optee_os/lib/libutee/tee_api_arith.c:579
     cd2:	4628      	mov	r0, r5
/root/devel/optee/optee_os/lib/libutee/tee_api_arith.c:567
     cd4:	4691      	mov	r9, r2
/root/devel/optee/optee_os/lib/libutee/tee_api_arith.c:579
     cd6:	447c      	add	r4, pc
     cd8:	4621      	mov	r1, r4
     cda:	f003 fbdd 	bl	4498 <mpa_alloc_static_temp_var>
/root/devel/optee/optee_os/lib/libutee/tee_api_arith.c:582
     cde:	9f03      	ldr	r7, [sp, #12]
     ce0:	f001 ff20 	bl	2b24 <mpa_constant_one>
     ce4:	f8da 3008 	ldr.w	r3, [sl, #8]
     ce8:	4642      	mov	r2, r8
     cea:	4601      	mov	r1, r0
     cec:	9401      	str	r4, [sp, #4]
     cee:	4638      	mov	r0, r7
     cf0:	9300      	str	r3, [sp, #0]
     cf2:	464b      	mov	r3, r9
     cf4:	f002 f838 	bl	2d68 <mpa_montgomery_mul>
/root/devel/optee/optee_os/lib/libutee/tee_api_arith.c:585
     cf8:	9903      	ldr	r1, [sp, #12]
     cfa:	4630      	mov	r0, r6
     cfc:	f001 febe 	bl	2a7c <mpa_copy>
/root/devel/optee/optee_os/lib/libutee/tee_api_arith.c:586
     d00:	4621      	mov	r1, r4
     d02:	4628      	mov	r0, r5
     d04:	f003 fbcd 	bl	44a2 <mpa_free_static_temp_var>
/root/devel/optee/optee_os/lib/libutee/tee_api_arith.c:587
     d08:	b004      	add	sp, #16
     d0a:	e8bd 87f0 	ldmia.w	sp!, {r4, r5, r6, r7, r8, r9, sl, pc}
     d0e:	bf00      	nop
     d10:	000063e2 	.word	0x000063e2

00000d14 <TEE_BigIntComputeFMM>:
TEE_BigIntComputeFMM():
/root/devel/optee/optee_os/lib/libutee/tee_api_arith.c:597
     d14:	b513      	push	{r0, r1, r4, lr}
/root/devel/optee/optee_os/lib/libutee/tee_api_arith.c:604
     d16:	4c05      	ldr	r4, [pc, #20]	; (d2c <TEE_BigIntComputeFMM+0x18>)
     d18:	447c      	add	r4, pc
     d1a:	9401      	str	r4, [sp, #4]
     d1c:	9c04      	ldr	r4, [sp, #16]
     d1e:	68a4      	ldr	r4, [r4, #8]
     d20:	9400      	str	r4, [sp, #0]
     d22:	f002 f821 	bl	2d68 <mpa_montgomery_mul>
/root/devel/optee/optee_os/lib/libutee/tee_api_arith.c:606
     d26:	b002      	add	sp, #8
     d28:	bd10      	pop	{r4, pc}
     d2a:	bf00      	nop
     d2c:	000063a0 	.word	0x000063a0

00000d30 <TEE_BigInt_Panic>:
TEE_BigInt_Panic():
/root/devel/optee/optee_os/lib/libutee/tee_api_arith.c:63
     d30:	b507      	push	{r0, r1, r2, lr}
/root/devel/optee/optee_os/lib/libutee/tee_api_arith.c:64
     d32:	4601      	mov	r1, r0
     d34:	480a      	ldr	r0, [pc, #40]	; (d60 <TEE_BigInt_Panic+0x30>)
/root/devel/optee/optee_os/lib/libutee/tee_api_arith.c:65
     d36:	4c09      	ldr	r4, [pc, #36]	; (d5c <TEE_BigInt_Panic+0x2c>)
/root/devel/optee/optee_os/lib/libutee/tee_api_arith.c:64
     d38:	4478      	add	r0, pc
     d3a:	f000 fc35 	bl	15a8 <printf>
/root/devel/optee/optee_os/lib/libutee/tee_api_arith.c:65
     d3e:	4b09      	ldr	r3, [pc, #36]	; (d64 <TEE_BigInt_Panic+0x34>)
     d40:	9401      	str	r4, [sp, #4]
     d42:	2141      	movs	r1, #65	; 0x41
     d44:	4808      	ldr	r0, [pc, #32]	; (d68 <TEE_BigInt_Panic+0x38>)
     d46:	447b      	add	r3, pc
     d48:	4478      	add	r0, pc
     d4a:	9300      	str	r3, [sp, #0]
     d4c:	2301      	movs	r3, #1
     d4e:	461a      	mov	r2, r3
     d50:	f001 fd40 	bl	27d4 <trace_printf>
     d54:	4620      	mov	r0, r4
     d56:	f002 fc63 	bl	3620 <__TEE_Panic>
/root/devel/optee/optee_os/lib/libutee/tee_api_arith.c:67 (discriminator 1)
     d5a:	e7fe      	b.n	d5a <TEE_BigInt_Panic+0x2a>
     d5c:	00b16127 	.word	0x00b16127
     d60:	000053bc 	.word	0x000053bc
     d64:	00005373 	.word	0x00005373
     d68:	0000537c 	.word	0x0000537c

00000d6c <__utee_from_param>:
__utee_from_param():
/root/devel/optee/optee_os/lib/libutee/tee_api.c:45
     d6c:	2300      	movs	r3, #0
/root/devel/optee/optee_os/lib/libutee/tee_api.c:42
     d6e:	e92d 4370 	stmdb	sp!, {r4, r5, r6, r8, r9, lr}
     d72:	4615      	mov	r5, r2
/root/devel/optee/optee_os/lib/libutee/tee_api.c:61
     d74:	f04f 0800 	mov.w	r8, #0
/root/devel/optee/optee_os/lib/libutee/tee_api.c:45
     d78:	e9c0 1300 	strd	r1, r3, [r0]
/root/devel/optee/optee_os/lib/libutee/tee_api.c:61
     d7c:	f04f 0900 	mov.w	r9, #0
     d80:	3010      	adds	r0, #16
/root/devel/optee/optee_os/lib/libutee/tee_api.c:57
     d82:	461e      	mov	r6, r3
/root/devel/optee/optee_os/lib/libutee/tee_api.c:47
     d84:	fa21 f403 	lsr.w	r4, r1, r3
     d88:	f004 040f 	and.w	r4, r4, #15
     d8c:	3c01      	subs	r4, #1
     d8e:	2c06      	cmp	r4, #6
     d90:	d80d      	bhi.n	dae <__utee_from_param+0x42>
     d92:	e8df f004 	tbb	[pc, r4]
     d96:	0404      	.short	0x0404
     d98:	04040c04 	.word	0x04040c04
     d9c:	04          	.byte	0x04
     d9d:	00          	.byte	0x00
/root/devel/optee/optee_os/lib/libutee/tee_api.c:57
     d9e:	f852 4013 	ldr.w	r4, [r2, r3, lsl #1]
     da2:	e940 4602 	strd	r4, r6, [r0, #-8]
/root/devel/optee/optee_os/lib/libutee/tee_api.c:58
     da6:	686c      	ldr	r4, [r5, #4]
     da8:	e9c0 4600 	strd	r4, r6, [r0]
/root/devel/optee/optee_os/lib/libutee/tee_api.c:59
     dac:	e003      	b.n	db6 <__utee_from_param+0x4a>
/root/devel/optee/optee_os/lib/libutee/tee_api.c:61
     dae:	e940 8902 	strd	r8, r9, [r0, #-8]
/root/devel/optee/optee_os/lib/libutee/tee_api.c:62
     db2:	e9c0 8900 	strd	r8, r9, [r0]
     db6:	3304      	adds	r3, #4
     db8:	3508      	adds	r5, #8
/root/devel/optee/optee_os/lib/libutee/tee_api.c:46 (discriminator 2)
     dba:	2b10      	cmp	r3, #16
     dbc:	f100 0010 	add.w	r0, r0, #16
     dc0:	d1e0      	bne.n	d84 <__utee_from_param+0x18>
/root/devel/optee/optee_os/lib/libutee/tee_api.c:66
     dc2:	e8bd 8370 	ldmia.w	sp!, {r4, r5, r6, r8, r9, pc}

00000dc6 <__utee_to_param>:
__utee_to_param():
/root/devel/optee/optee_os/lib/libutee/tee_api.c:70
     dc6:	b5f0      	push	{r4, r5, r6, r7, lr}
/root/devel/optee/optee_os/lib/libutee/tee_api.c:72
     dc8:	2300      	movs	r3, #0
     dca:	f852 6b10 	ldr.w	r6, [r2], #16
     dce:	4605      	mov	r5, r0
/root/devel/optee/optee_os/lib/libutee/tee_api.c:78
     dd0:	fa26 f403 	lsr.w	r4, r6, r3
/root/devel/optee/optee_os/lib/libutee/tee_api.c:75
     dd4:	f852 ec08 	ldr.w	lr, [r2, #-8]
/root/devel/optee/optee_os/lib/libutee/tee_api.c:76
     dd8:	6817      	ldr	r7, [r2, #0]
/root/devel/optee/optee_os/lib/libutee/tee_api.c:78
     dda:	f004 040f 	and.w	r4, r4, #15
     dde:	3c01      	subs	r4, #1
     de0:	2c06      	cmp	r4, #6
     de2:	d808      	bhi.n	df6 <__utee_to_param+0x30>
     de4:	e8df f004 	tbb	[pc, r4]
     de8:	07040404 	.word	0x07040404
     dec:	0404      	.short	0x0404
     dee:	04          	.byte	0x04
     def:	00          	.byte	0x00
/root/devel/optee/optee_os/lib/libutee/tee_api.c:88
     df0:	f840 e013 	str.w	lr, [r0, r3, lsl #1]
/root/devel/optee/optee_os/lib/libutee/tee_api.c:89
     df4:	606f      	str	r7, [r5, #4]
     df6:	3304      	adds	r3, #4
     df8:	3210      	adds	r2, #16
/root/devel/optee/optee_os/lib/libutee/tee_api.c:74 (discriminator 2)
     dfa:	2b10      	cmp	r3, #16
     dfc:	f105 0508 	add.w	r5, r5, #8
     e00:	d1e6      	bne.n	dd0 <__utee_to_param+0xa>
/root/devel/optee/optee_os/lib/libutee/tee_api.c:96
     e02:	b101      	cbz	r1, e06 <__utee_to_param+0x40>
/root/devel/optee/optee_os/lib/libutee/tee_api.c:97
     e04:	600e      	str	r6, [r1, #0]
     e06:	bdf0      	pop	{r4, r5, r6, r7, pc}

00000e08 <TEE_OpenTASession>:
TEE_OpenTASession():
/root/devel/optee/optee_os/lib/libutee/tee_api.c:105
     e08:	b5f0      	push	{r4, r5, r6, r7, lr}
     e0a:	b097      	sub	sp, #92	; 0x5c
/root/devel/optee/optee_os/lib/libutee/tee_api.c:110
     e0c:	ac04      	add	r4, sp, #16
/root/devel/optee/optee_os/lib/libutee/tee_api.c:105
     e0e:	4605      	mov	r5, r0
     e10:	460f      	mov	r7, r1
/root/devel/optee/optee_os/lib/libutee/tee_api.c:110
     e12:	4620      	mov	r0, r4
/root/devel/optee/optee_os/lib/libutee/tee_api.c:105
     e14:	4611      	mov	r1, r2
/root/devel/optee/optee_os/lib/libutee/tee_api.c:110
     e16:	461a      	mov	r2, r3
/root/devel/optee/optee_os/lib/libutee/tee_api.c:105
     e18:	461e      	mov	r6, r3
/root/devel/optee/optee_os/lib/libutee/tee_api.c:110
     e1a:	f7ff ffa7 	bl	d6c <__utee_from_param>
/root/devel/optee/optee_os/lib/libutee/tee_api.c:111
     e1e:	9b1d      	ldr	r3, [sp, #116]	; 0x74
     e20:	4622      	mov	r2, r4
     e22:	4639      	mov	r1, r7
     e24:	4628      	mov	r0, r5
     e26:	9300      	str	r3, [sp, #0]
     e28:	ab03      	add	r3, sp, #12
     e2a:	f7ff ea8e 	blx	348 <utee_open_ta_session>
     e2e:	4605      	mov	r5, r0
/root/devel/optee/optee_os/lib/libutee/tee_api.c:113
     e30:	4622      	mov	r2, r4
     e32:	2100      	movs	r1, #0
     e34:	4630      	mov	r0, r6
     e36:	f7ff ffc6 	bl	dc6 <__utee_to_param>
/root/devel/optee/optee_os/lib/libutee/tee_api.c:119
     e3a:	b10d      	cbz	r5, e40 <TEE_OpenTASession+0x38>
/root/devel/optee/optee_os/lib/libutee/tee_api.c:120
     e3c:	2300      	movs	r3, #0
     e3e:	9303      	str	r3, [sp, #12]
/root/devel/optee/optee_os/lib/libutee/tee_api.c:122
     e40:	9a03      	ldr	r2, [sp, #12]
/root/devel/optee/optee_os/lib/libutee/tee_api.c:124
     e42:	4628      	mov	r0, r5
/root/devel/optee/optee_os/lib/libutee/tee_api.c:122
     e44:	9b1c      	ldr	r3, [sp, #112]	; 0x70
     e46:	601a      	str	r2, [r3, #0]
/root/devel/optee/optee_os/lib/libutee/tee_api.c:124
     e48:	b017      	add	sp, #92	; 0x5c
     e4a:	bdf0      	pop	{r4, r5, r6, r7, pc}

00000e4c <TEE_CloseTASession>:
TEE_CloseTASession():
/root/devel/optee/optee_os/lib/libutee/tee_api.c:127
     e4c:	b513      	push	{r0, r1, r4, lr}
/root/devel/optee/optee_os/lib/libutee/tee_api.c:128
     e4e:	b1a0      	cbz	r0, e7a <TEE_CloseTASession+0x2e>
/root/devel/optee/optee_os/lib/libutee/tee_api.c:129
     e50:	f7ff ea86 	blx	360 <utee_close_ta_session>
/root/devel/optee/optee_os/lib/libutee/tee_api.c:131
     e54:	4604      	mov	r4, r0
     e56:	b180      	cbz	r0, e7a <TEE_CloseTASession+0x2e>
/root/devel/optee/optee_os/lib/libutee/tee_api.c:132
     e58:	4b09      	ldr	r3, [pc, #36]	; (e80 <TEE_CloseTASession+0x34>)
     e5a:	9001      	str	r0, [sp, #4]
     e5c:	2184      	movs	r1, #132	; 0x84
     e5e:	4809      	ldr	r0, [pc, #36]	; (e84 <TEE_CloseTASession+0x38>)
     e60:	447b      	add	r3, pc
     e62:	4478      	add	r0, pc
     e64:	9300      	str	r3, [sp, #0]
     e66:	2301      	movs	r3, #1
     e68:	461a      	mov	r2, r3
     e6a:	f001 fcb3 	bl	27d4 <trace_printf>
     e6e:	4620      	mov	r0, r4
/root/devel/optee/optee_os/lib/libutee/tee_api.c:134
     e70:	b002      	add	sp, #8
     e72:	e8bd 4010 	ldmia.w	sp!, {r4, lr}
/root/devel/optee/optee_os/lib/libutee/tee_api.c:132
     e76:	f002 bbd3 	b.w	3620 <__TEE_Panic>
/root/devel/optee/optee_os/lib/libutee/tee_api.c:134
     e7a:	b002      	add	sp, #8
     e7c:	bd10      	pop	{r4, pc}
     e7e:	bf00      	nop
     e80:	00005259 	.word	0x00005259
     e84:	000052ed 	.word	0x000052ed

00000e88 <TEE_InvokeTACommand>:
TEE_InvokeTACommand():
/root/devel/optee/optee_os/lib/libutee/tee_api.c:140
     e88:	e92d 41f0 	stmdb	sp!, {r4, r5, r6, r7, r8, lr}
     e8c:	b096      	sub	sp, #88	; 0x58
/root/devel/optee/optee_os/lib/libutee/tee_api.c:145
     e8e:	ad04      	add	r5, sp, #16
/root/devel/optee/optee_os/lib/libutee/tee_api.c:140
     e90:	4604      	mov	r4, r0
     e92:	9e1d      	ldr	r6, [sp, #116]	; 0x74
     e94:	460f      	mov	r7, r1
     e96:	4690      	mov	r8, r2
/root/devel/optee/optee_os/lib/libutee/tee_api.c:145
     e98:	9a1c      	ldr	r2, [sp, #112]	; 0x70
     e9a:	4619      	mov	r1, r3
     e9c:	4628      	mov	r0, r5
     e9e:	f7ff ff65 	bl	d6c <__utee_from_param>
/root/devel/optee/optee_os/lib/libutee/tee_api.c:146
     ea2:	ab03      	add	r3, sp, #12
     ea4:	4642      	mov	r2, r8
     ea6:	4639      	mov	r1, r7
     ea8:	4620      	mov	r0, r4
     eaa:	9300      	str	r3, [sp, #0]
     eac:	462b      	mov	r3, r5
     eae:	f7ff ea62 	blx	374 <utee_invoke_ta_command>
     eb2:	4604      	mov	r4, r0
/root/devel/optee/optee_os/lib/libutee/tee_api.c:149
     eb4:	462a      	mov	r2, r5
     eb6:	981c      	ldr	r0, [sp, #112]	; 0x70
     eb8:	2100      	movs	r1, #0
     eba:	f7ff ff84 	bl	dc6 <__utee_to_param>
     ebe:	9b03      	ldr	r3, [sp, #12]
/root/devel/optee/optee_os/lib/libutee/tee_api.c:151
     ec0:	b106      	cbz	r6, ec4 <TEE_InvokeTACommand+0x3c>
/root/devel/optee/optee_os/lib/libutee/tee_api.c:152
     ec2:	6033      	str	r3, [r6, #0]
/root/devel/optee/optee_os/lib/libutee/tee_api.c:154
     ec4:	2b04      	cmp	r3, #4
     ec6:	d015      	beq.n	ef4 <TEE_InvokeTACommand+0x6c>
/root/devel/optee/optee_os/lib/libutee/tee_api.c:157
     ec8:	b1a4      	cbz	r4, ef4 <TEE_InvokeTACommand+0x6c>
/root/devel/optee/optee_os/lib/libutee/tee_api.c:157 (discriminator 1)
     eca:	4b0c      	ldr	r3, [pc, #48]	; (efc <TEE_InvokeTACommand+0x74>)
     ecc:	429c      	cmp	r4, r3
     ece:	d011      	beq.n	ef4 <TEE_InvokeTACommand+0x6c>
/root/devel/optee/optee_os/lib/libutee/tee_api.c:158
     ed0:	4b0b      	ldr	r3, [pc, #44]	; (f00 <TEE_InvokeTACommand+0x78>)
     ed2:	429c      	cmp	r4, r3
     ed4:	d00e      	beq.n	ef4 <TEE_InvokeTACommand+0x6c>
/root/devel/optee/optee_os/lib/libutee/tee_api.c:160
     ed6:	4b0b      	ldr	r3, [pc, #44]	; (f04 <TEE_InvokeTACommand+0x7c>)
     ed8:	9401      	str	r4, [sp, #4]
     eda:	21a0      	movs	r1, #160	; 0xa0
     edc:	480a      	ldr	r0, [pc, #40]	; (f08 <TEE_InvokeTACommand+0x80>)
     ede:	447b      	add	r3, pc
     ee0:	4478      	add	r0, pc
     ee2:	9300      	str	r3, [sp, #0]
     ee4:	2301      	movs	r3, #1
     ee6:	3013      	adds	r0, #19
     ee8:	461a      	mov	r2, r3
     eea:	f001 fc73 	bl	27d4 <trace_printf>
     eee:	4620      	mov	r0, r4
     ef0:	f002 fb96 	bl	3620 <__TEE_Panic>
/root/devel/optee/optee_os/lib/libutee/tee_api.c:163
     ef4:	4620      	mov	r0, r4
     ef6:	b016      	add	sp, #88	; 0x58
     ef8:	e8bd 81f0 	ldmia.w	sp!, {r4, r5, r6, r7, r8, pc}
     efc:	ffff000c 	.word	0xffff000c
     f00:	ffff3024 	.word	0xffff3024
     f04:	000051db 	.word	0x000051db
     f08:	0000526f 	.word	0x0000526f

00000f0c <TEE_GetCancellationFlag>:
TEE_GetCancellationFlag():
/root/devel/optee/optee_os/lib/libutee/tee_api.c:168
     f0c:	b507      	push	{r0, r1, r2, lr}
/root/devel/optee/optee_os/lib/libutee/tee_api.c:170
     f0e:	a801      	add	r0, sp, #4
     f10:	f7ff ea3c 	blx	38c <utee_get_cancellation_flag>
/root/devel/optee/optee_os/lib/libutee/tee_api.c:172
     f14:	b108      	cbz	r0, f1a <TEE_GetCancellationFlag+0xe>
/root/devel/optee/optee_os/lib/libutee/tee_api.c:173
     f16:	2300      	movs	r3, #0
     f18:	9301      	str	r3, [sp, #4]
/root/devel/optee/optee_os/lib/libutee/tee_api.c:175
     f1a:	9801      	ldr	r0, [sp, #4]
     f1c:	3000      	adds	r0, #0
     f1e:	bf18      	it	ne
     f20:	2001      	movne	r0, #1
     f22:	b003      	add	sp, #12
     f24:	f85d fb04 	ldr.w	pc, [sp], #4

00000f28 <TEE_UnmaskCancellation>:
TEE_UnmaskCancellation():
/root/devel/optee/optee_os/lib/libutee/tee_api.c:178
     f28:	b51f      	push	{r0, r1, r2, r3, r4, lr}
/root/devel/optee/optee_os/lib/libutee/tee_api.c:180
     f2a:	a803      	add	r0, sp, #12
     f2c:	f7ff ea42 	blx	3b4 <utee_unmask_cancellation>
/root/devel/optee/optee_os/lib/libutee/tee_api.c:182
     f30:	4604      	mov	r4, r0
     f32:	b170      	cbz	r0, f52 <TEE_UnmaskCancellation+0x2a>
/root/devel/optee/optee_os/lib/libutee/tee_api.c:183
     f34:	4b0a      	ldr	r3, [pc, #40]	; (f60 <TEE_UnmaskCancellation+0x38>)
     f36:	9001      	str	r0, [sp, #4]
     f38:	21b7      	movs	r1, #183	; 0xb7
     f3a:	480a      	ldr	r0, [pc, #40]	; (f64 <TEE_UnmaskCancellation+0x3c>)
     f3c:	447b      	add	r3, pc
     f3e:	4478      	add	r0, pc
     f40:	9300      	str	r3, [sp, #0]
     f42:	2301      	movs	r3, #1
     f44:	3027      	adds	r0, #39	; 0x27
     f46:	461a      	mov	r2, r3
     f48:	f001 fc44 	bl	27d4 <trace_printf>
     f4c:	4620      	mov	r0, r4
     f4e:	f002 fb67 	bl	3620 <__TEE_Panic>
/root/devel/optee/optee_os/lib/libutee/tee_api.c:185
     f52:	9803      	ldr	r0, [sp, #12]
     f54:	3000      	adds	r0, #0
     f56:	bf18      	it	ne
     f58:	2001      	movne	r0, #1
     f5a:	b004      	add	sp, #16
     f5c:	bd10      	pop	{r4, pc}
     f5e:	bf00      	nop
     f60:	0000517d 	.word	0x0000517d
     f64:	00005211 	.word	0x00005211

00000f68 <TEE_MaskCancellation>:
TEE_MaskCancellation():
/root/devel/optee/optee_os/lib/libutee/tee_api.c:188
     f68:	b51f      	push	{r0, r1, r2, r3, r4, lr}
/root/devel/optee/optee_os/lib/libutee/tee_api.c:190
     f6a:	a803      	add	r0, sp, #12
     f6c:	f7ff ea2c 	blx	3c8 <utee_mask_cancellation>
/root/devel/optee/optee_os/lib/libutee/tee_api.c:192
     f70:	4604      	mov	r4, r0
     f72:	b170      	cbz	r0, f92 <TEE_MaskCancellation+0x2a>
/root/devel/optee/optee_os/lib/libutee/tee_api.c:193
     f74:	4b0a      	ldr	r3, [pc, #40]	; (fa0 <TEE_MaskCancellation+0x38>)
     f76:	9001      	str	r0, [sp, #4]
     f78:	21c1      	movs	r1, #193	; 0xc1
     f7a:	480a      	ldr	r0, [pc, #40]	; (fa4 <TEE_MaskCancellation+0x3c>)
     f7c:	447b      	add	r3, pc
     f7e:	4478      	add	r0, pc
     f80:	9300      	str	r3, [sp, #0]
     f82:	2301      	movs	r3, #1
     f84:	303e      	adds	r0, #62	; 0x3e
     f86:	461a      	mov	r2, r3
     f88:	f001 fc24 	bl	27d4 <trace_printf>
     f8c:	4620      	mov	r0, r4
     f8e:	f002 fb47 	bl	3620 <__TEE_Panic>
/root/devel/optee/optee_os/lib/libutee/tee_api.c:195
     f92:	9803      	ldr	r0, [sp, #12]
     f94:	3000      	adds	r0, #0
     f96:	bf18      	it	ne
     f98:	2001      	movne	r0, #1
     f9a:	b004      	add	sp, #16
     f9c:	bd10      	pop	{r4, pc}
     f9e:	bf00      	nop
     fa0:	0000513d 	.word	0x0000513d
     fa4:	000051d1 	.word	0x000051d1

00000fa8 <TEE_CheckMemoryAccessRights>:
TEE_CheckMemoryAccessRights():
/root/devel/optee/optee_os/lib/libutee/tee_api.c:204
     fa8:	b10a      	cbz	r2, fae <TEE_CheckMemoryAccessRights+0x6>
/root/devel/optee/optee_os/lib/libutee/tee_api.c:208
     faa:	f004 b929 	b.w	5200 <__utee_check_access_rights_from_thumb>
/root/devel/optee/optee_os/lib/libutee/tee_api.c:220
     fae:	4610      	mov	r0, r2
     fb0:	4770      	bx	lr

00000fb2 <TEE_SetInstanceData>:
TEE_SetInstanceData():
/root/devel/optee/optee_os/lib/libutee/tee_api.c:224
     fb2:	4b02      	ldr	r3, [pc, #8]	; (fbc <TEE_SetInstanceData+0xa>)
     fb4:	447b      	add	r3, pc
     fb6:	6018      	str	r0, [r3, #0]
     fb8:	4770      	bx	lr
     fba:	bf00      	nop
     fbc:	00007c04 	.word	0x00007c04

00000fc0 <TEE_GetInstanceData>:
TEE_GetInstanceData():
/root/devel/optee/optee_os/lib/libutee/tee_api.c:230
     fc0:	4b01      	ldr	r3, [pc, #4]	; (fc8 <TEE_GetInstanceData+0x8>)
     fc2:	447b      	add	r3, pc
     fc4:	6818      	ldr	r0, [r3, #0]
     fc6:	4770      	bx	lr
     fc8:	00007bf6 	.word	0x00007bf6

00000fcc <TEE_MemMove>:
TEE_MemMove():
/root/devel/optee/optee_os/lib/libutee/tee_api.c:234
     fcc:	f002 bb6e 	b.w	36ac <memmove>

00000fd0 <TEE_MemCompare>:
TEE_MemCompare():
/root/devel/optee/optee_os/lib/libutee/tee_api.c:239
     fd0:	f002 bb51 	b.w	3676 <memcmp>

00000fd4 <TEE_MemFill>:
TEE_MemFill():
/root/devel/optee/optee_os/lib/libutee/tee_api.c:244
     fd4:	f002 bb85 	b.w	36e2 <memset>

00000fd8 <TEE_GetSystemTime>:
TEE_GetSystemTime():
/root/devel/optee/optee_os/lib/libutee/tee_api.c:250
     fd8:	b513      	push	{r0, r1, r4, lr}
/root/devel/optee/optee_os/lib/libutee/tee_api.c:251
     fda:	4601      	mov	r1, r0
     fdc:	2000      	movs	r0, #0
     fde:	f7ff ea08 	blx	3f0 <utee_get_time>
/root/devel/optee/optee_os/lib/libutee/tee_api.c:253
     fe2:	b190      	cbz	r0, 100a <TEE_GetSystemTime+0x32>
/root/devel/optee/optee_os/lib/libutee/tee_api.c:254
     fe4:	4b0a      	ldr	r3, [pc, #40]	; (1010 <TEE_GetSystemTime+0x38>)
     fe6:	2400      	movs	r4, #0
     fe8:	21fe      	movs	r1, #254	; 0xfe
     fea:	480a      	ldr	r0, [pc, #40]	; (1014 <TEE_GetSystemTime+0x3c>)
     fec:	9401      	str	r4, [sp, #4]
     fee:	447b      	add	r3, pc
     ff0:	4478      	add	r0, pc
     ff2:	9300      	str	r3, [sp, #0]
     ff4:	2301      	movs	r3, #1
     ff6:	3053      	adds	r0, #83	; 0x53
     ff8:	461a      	mov	r2, r3
     ffa:	f001 fbeb 	bl	27d4 <trace_printf>
     ffe:	4620      	mov	r0, r4
/root/devel/optee/optee_os/lib/libutee/tee_api.c:255
    1000:	b002      	add	sp, #8
    1002:	e8bd 4010 	ldmia.w	sp!, {r4, lr}
/root/devel/optee/optee_os/lib/libutee/tee_api.c:254
    1006:	f002 bb0b 	b.w	3620 <__TEE_Panic>
/root/devel/optee/optee_os/lib/libutee/tee_api.c:255
    100a:	b002      	add	sp, #8
    100c:	bd10      	pop	{r4, pc}
    100e:	bf00      	nop
    1010:	000050cb 	.word	0x000050cb
    1014:	0000515f 	.word	0x0000515f

00001018 <TEE_Wait>:
TEE_Wait():
/root/devel/optee/optee_os/lib/libutee/tee_api.c:258
    1018:	b513      	push	{r0, r1, r4, lr}
/root/devel/optee/optee_os/lib/libutee/tee_api.c:259
    101a:	f7ff e9e0 	blx	3dc <utee_wait>
/root/devel/optee/optee_os/lib/libutee/tee_api.c:261
    101e:	4604      	mov	r4, r0
    1020:	b190      	cbz	r0, 1048 <TEE_Wait+0x30>
/root/devel/optee/optee_os/lib/libutee/tee_api.c:261 (discriminator 1)
    1022:	4b0b      	ldr	r3, [pc, #44]	; (1050 <TEE_Wait+0x38>)
    1024:	4298      	cmp	r0, r3
    1026:	d00f      	beq.n	1048 <TEE_Wait+0x30>
/root/devel/optee/optee_os/lib/libutee/tee_api.c:262
    1028:	4b0a      	ldr	r3, [pc, #40]	; (1054 <TEE_Wait+0x3c>)
    102a:	9001      	str	r0, [sp, #4]
    102c:	f44f 7183 	mov.w	r1, #262	; 0x106
    1030:	4809      	ldr	r0, [pc, #36]	; (1058 <TEE_Wait+0x40>)
    1032:	447b      	add	r3, pc
    1034:	4478      	add	r0, pc
    1036:	9300      	str	r3, [sp, #0]
    1038:	2301      	movs	r3, #1
    103a:	3065      	adds	r0, #101	; 0x65
    103c:	461a      	mov	r2, r3
    103e:	f001 fbc9 	bl	27d4 <trace_printf>
    1042:	4620      	mov	r0, r4
    1044:	f002 faec 	bl	3620 <__TEE_Panic>
/root/devel/optee/optee_os/lib/libutee/tee_api.c:265
    1048:	4620      	mov	r0, r4
    104a:	b002      	add	sp, #8
    104c:	bd10      	pop	{r4, pc}
    104e:	bf00      	nop
    1050:	ffff0002 	.word	0xffff0002
    1054:	00005087 	.word	0x00005087
    1058:	0000511b 	.word	0x0000511b

0000105c <TEE_GetTAPersistentTime>:
TEE_GetTAPersistentTime():
/root/devel/optee/optee_os/lib/libutee/tee_api.c:268
    105c:	b537      	push	{r0, r1, r2, r4, r5, lr}
/root/devel/optee/optee_os/lib/libutee/tee_api.c:271
    105e:	4601      	mov	r1, r0
/root/devel/optee/optee_os/lib/libutee/tee_api.c:268
    1060:	4605      	mov	r5, r0
/root/devel/optee/optee_os/lib/libutee/tee_api.c:271
    1062:	2001      	movs	r0, #1
    1064:	f7ff e9c4 	blx	3f0 <utee_get_time>
/root/devel/optee/optee_os/lib/libutee/tee_api.c:273
    1068:	4604      	mov	r4, r0
    106a:	b1e0      	cbz	r0, 10a6 <TEE_GetTAPersistentTime+0x4a>
/root/devel/optee/optee_os/lib/libutee/tee_api.c:273 (discriminator 1)
    106c:	4b0f      	ldr	r3, [pc, #60]	; (10ac <TEE_GetTAPersistentTime+0x50>)
    106e:	4298      	cmp	r0, r3
    1070:	d019      	beq.n	10a6 <TEE_GetTAPersistentTime+0x4a>
/root/devel/optee/optee_os/lib/libutee/tee_api.c:274
    1072:	2300      	movs	r3, #0
    1074:	602b      	str	r3, [r5, #0]
/root/devel/optee/optee_os/lib/libutee/tee_api.c:275
    1076:	606b      	str	r3, [r5, #4]
/root/devel/optee/optee_os/lib/libutee/tee_api.c:278
    1078:	f500 4330 	add.w	r3, r0, #45056	; 0xb000
    107c:	2b01      	cmp	r3, #1
    107e:	d912      	bls.n	10a6 <TEE_GetTAPersistentTime+0x4a>
/root/devel/optee/optee_os/lib/libutee/tee_api.c:281
    1080:	4b0b      	ldr	r3, [pc, #44]	; (10b0 <TEE_GetTAPersistentTime+0x54>)
    1082:	4298      	cmp	r0, r3
    1084:	d00f      	beq.n	10a6 <TEE_GetTAPersistentTime+0x4a>
/root/devel/optee/optee_os/lib/libutee/tee_api.c:283
    1086:	4b0b      	ldr	r3, [pc, #44]	; (10b4 <TEE_GetTAPersistentTime+0x58>)
    1088:	9001      	str	r0, [sp, #4]
    108a:	f240 111b 	movw	r1, #283	; 0x11b
    108e:	480a      	ldr	r0, [pc, #40]	; (10b8 <TEE_GetTAPersistentTime+0x5c>)
    1090:	447b      	add	r3, pc
    1092:	4478      	add	r0, pc
    1094:	9300      	str	r3, [sp, #0]
    1096:	2301      	movs	r3, #1
    1098:	306e      	adds	r0, #110	; 0x6e
    109a:	461a      	mov	r2, r3
    109c:	f001 fb9a 	bl	27d4 <trace_printf>
    10a0:	4620      	mov	r0, r4
    10a2:	f002 fabd 	bl	3620 <__TEE_Panic>
/root/devel/optee/optee_os/lib/libutee/tee_api.c:286
    10a6:	4620      	mov	r0, r4
    10a8:	b003      	add	sp, #12
    10aa:	bd30      	pop	{r4, r5, pc}
    10ac:	ffff300f 	.word	0xffff300f
    10b0:	ffff000c 	.word	0xffff000c
    10b4:	00005029 	.word	0x00005029
    10b8:	000050bd 	.word	0x000050bd

000010bc <TEE_SetTAPersistentTime>:
TEE_SetTAPersistentTime():
/root/devel/optee/optee_os/lib/libutee/tee_api.c:289
    10bc:	b513      	push	{r0, r1, r4, lr}
/root/devel/optee/optee_os/lib/libutee/tee_api.c:292
    10be:	f7ff e9a2 	blx	404 <utee_set_ta_time>
/root/devel/optee/optee_os/lib/libutee/tee_api.c:294
    10c2:	4604      	mov	r4, r0
    10c4:	b1a8      	cbz	r0, 10f2 <TEE_SetTAPersistentTime+0x36>
/root/devel/optee/optee_os/lib/libutee/tee_api.c:294 (discriminator 1)
    10c6:	4b0c      	ldr	r3, [pc, #48]	; (10f8 <TEE_SetTAPersistentTime+0x3c>)
    10c8:	4298      	cmp	r0, r3
    10ca:	d012      	beq.n	10f2 <TEE_SetTAPersistentTime+0x36>
/root/devel/optee/optee_os/lib/libutee/tee_api.c:295
    10cc:	4b0b      	ldr	r3, [pc, #44]	; (10fc <TEE_SetTAPersistentTime+0x40>)
    10ce:	4298      	cmp	r0, r3
    10d0:	d00f      	beq.n	10f2 <TEE_SetTAPersistentTime+0x36>
/root/devel/optee/optee_os/lib/libutee/tee_api.c:297
    10d2:	4b0b      	ldr	r3, [pc, #44]	; (1100 <TEE_SetTAPersistentTime+0x44>)
    10d4:	9001      	str	r0, [sp, #4]
    10d6:	f240 1129 	movw	r1, #297	; 0x129
    10da:	480a      	ldr	r0, [pc, #40]	; (1104 <TEE_SetTAPersistentTime+0x48>)
    10dc:	447b      	add	r3, pc
    10de:	4478      	add	r0, pc
    10e0:	9300      	str	r3, [sp, #0]
    10e2:	2301      	movs	r3, #1
    10e4:	3086      	adds	r0, #134	; 0x86
    10e6:	461a      	mov	r2, r3
    10e8:	f001 fb74 	bl	27d4 <trace_printf>
    10ec:	4620      	mov	r0, r4
    10ee:	f002 fa97 	bl	3620 <__TEE_Panic>
/root/devel/optee/optee_os/lib/libutee/tee_api.c:300
    10f2:	4620      	mov	r0, r4
    10f4:	b002      	add	sp, #8
    10f6:	bd10      	pop	{r4, pc}
    10f8:	ffff000c 	.word	0xffff000c
    10fc:	ffff3041 	.word	0xffff3041
    1100:	00004fdd 	.word	0x00004fdd
    1104:	00005071 	.word	0x00005071

00001108 <TEE_GetREETime>:
TEE_GetREETime():
/root/devel/optee/optee_os/lib/libutee/tee_api.c:303
    1108:	b513      	push	{r0, r1, r4, lr}
/root/devel/optee/optee_os/lib/libutee/tee_api.c:304
    110a:	4601      	mov	r1, r0
    110c:	2002      	movs	r0, #2
    110e:	f7ff e970 	blx	3f0 <utee_get_time>
/root/devel/optee/optee_os/lib/libutee/tee_api.c:306
    1112:	b198      	cbz	r0, 113c <TEE_GetREETime+0x34>
/root/devel/optee/optee_os/lib/libutee/tee_api.c:307
    1114:	4b0a      	ldr	r3, [pc, #40]	; (1140 <TEE_GetREETime+0x38>)
    1116:	2400      	movs	r4, #0
    1118:	f240 1133 	movw	r1, #307	; 0x133
    111c:	4809      	ldr	r0, [pc, #36]	; (1144 <TEE_GetREETime+0x3c>)
    111e:	9401      	str	r4, [sp, #4]
    1120:	447b      	add	r3, pc
    1122:	4478      	add	r0, pc
    1124:	9300      	str	r3, [sp, #0]
    1126:	2301      	movs	r3, #1
    1128:	309e      	adds	r0, #158	; 0x9e
    112a:	461a      	mov	r2, r3
    112c:	f001 fb52 	bl	27d4 <trace_printf>
    1130:	4620      	mov	r0, r4
/root/devel/optee/optee_os/lib/libutee/tee_api.c:308
    1132:	b002      	add	sp, #8
    1134:	e8bd 4010 	ldmia.w	sp!, {r4, lr}
/root/devel/optee/optee_os/lib/libutee/tee_api.c:307
    1138:	f002 ba72 	b.w	3620 <__TEE_Panic>
/root/devel/optee/optee_os/lib/libutee/tee_api.c:308
    113c:	b002      	add	sp, #8
    113e:	bd10      	pop	{r4, pc}
    1140:	00004f99 	.word	0x00004f99
    1144:	0000502d 	.word	0x0000502d

00001148 <TEE_Malloc>:
TEE_Malloc():
/root/devel/optee/optee_os/lib/libutee/tee_api.c:312
    1148:	f000 b87c 	b.w	1244 <tee_user_mem_alloc>

0000114c <TEE_Realloc>:
TEE_Realloc():
/root/devel/optee/optee_os/lib/libutee/tee_api.c:321
    114c:	f000 b952 	b.w	13f4 <tee_user_mem_realloc>

00001150 <TEE_Free>:
TEE_Free():
/root/devel/optee/optee_os/lib/libutee/tee_api.c:326
    1150:	f000 b8de 	b.w	1310 <tee_user_mem_free>

00001154 <TEE_CacheClean>:
TEE_CacheClean():
/root/devel/optee/optee_os/lib/libutee/tee_api.c:332
    1154:	2200      	movs	r2, #0
    1156:	f004 b83b 	b.w	51d0 <__utee_cache_operation_from_thumb>

0000115a <TEE_CacheFlush>:
TEE_CacheFlush():
/root/devel/optee/optee_os/lib/libutee/tee_api.c:336
    115a:	2201      	movs	r2, #1
    115c:	f004 b838 	b.w	51d0 <__utee_cache_operation_from_thumb>

00001160 <TEE_CacheInvalidate>:
TEE_CacheInvalidate():
/root/devel/optee/optee_os/lib/libutee/tee_api.c:341
    1160:	2202      	movs	r2, #2
    1162:	f004 b835 	b.w	51d0 <__utee_cache_operation_from_thumb>
    1166:	bf00      	nop

00001168 <print_buf>:
print_buf():
/root/devel/optee/optee_os/lib/libutee/tee_user_mem.c:164
    1168:	b530      	push	{r4, r5, lr}
    116a:	b089      	sub	sp, #36	; 0x24
    116c:	9c0c      	ldr	r4, [sp, #48]	; 0x30
buf_size():
/root/devel/optee/optee_os/lib/libutee/tee_user_mem.c:135
    116e:	68a5      	ldr	r5, [r4, #8]
print_buf():
/root/devel/optee/optee_os/lib/libutee/tee_user_mem.c:165
    1170:	9303      	str	r3, [sp, #12]
    1172:	4b09      	ldr	r3, [pc, #36]	; (1198 <print_buf+0x30>)
    1174:	9101      	str	r1, [sp, #4]
    1176:	2100      	movs	r1, #0
    1178:	9202      	str	r2, [sp, #8]
    117a:	4602      	mov	r2, r0
    117c:	4608      	mov	r0, r1
    117e:	9404      	str	r4, [sp, #16]
buf_size():
/root/devel/optee/optee_os/lib/libutee/tee_user_mem.c:135
    1180:	3d11      	subs	r5, #17
print_buf():
/root/devel/optee/optee_os/lib/libutee/tee_user_mem.c:165
    1182:	447b      	add	r3, pc
    1184:	9506      	str	r5, [sp, #24]
buf_addr():
/root/devel/optee/optee_os/lib/libutee/tee_user_mem.c:130
    1186:	f104 0510 	add.w	r5, r4, #16
print_buf():
/root/devel/optee/optee_os/lib/libutee/tee_user_mem.c:165
    118a:	9300      	str	r3, [sp, #0]
    118c:	2301      	movs	r3, #1
    118e:	9505      	str	r5, [sp, #20]
    1190:	f001 fb20 	bl	27d4 <trace_printf>
/root/devel/optee/optee_os/lib/libutee/tee_user_mem.c:168
    1194:	b009      	add	sp, #36	; 0x24
    1196:	bd30      	pop	{r4, r5, pc}
    1198:	000050e5 	.word	0x000050e5

0000119c <check_elem>:
check_elem():
/root/devel/optee/optee_os/lib/libutee/tee_user_mem.c:235
    119c:	b513      	push	{r0, r1, r4, lr}
/root/devel/optee/optee_os/lib/libutee/tee_user_mem.c:239
    119e:	2800      	cmp	r0, #0
    11a0:	d03d      	beq.n	121e <check_elem+0x82>
/root/devel/optee/optee_os/lib/libutee/tee_user_mem.c:242
    11a2:	f010 0403 	ands.w	r4, r0, #3
    11a6:	d008      	beq.n	11ba <check_elem+0x1e>
    11a8:	491e      	ldr	r1, [pc, #120]	; (1224 <check_elem+0x88>)
    11aa:	22f2      	movs	r2, #242	; 0xf2
    11ac:	481e      	ldr	r0, [pc, #120]	; (1228 <check_elem+0x8c>)
    11ae:	4479      	add	r1, pc
    11b0:	4478      	add	r0, pc
    11b2:	f000 fa37 	bl	1624 <_assert_log>
    11b6:	f000 fa4b 	bl	1650 <_assert_break>
/root/devel/optee/optee_os/lib/libutee/tee_user_mem.c:244
    11ba:	6803      	ldr	r3, [r0, #0]
/root/devel/optee/optee_os/lib/libutee/tee_user_mem.c:245
    11bc:	b15b      	cbz	r3, 11d6 <check_elem+0x3a>
/root/devel/optee/optee_os/lib/libutee/tee_user_mem.c:245 (discriminator 1)
    11be:	685a      	ldr	r2, [r3, #4]
    11c0:	6852      	ldr	r2, [r2, #4]
    11c2:	6812      	ldr	r2, [r2, #0]
    11c4:	4282      	cmp	r2, r0
    11c6:	d006      	beq.n	11d6 <check_elem+0x3a>
/root/devel/optee/optee_os/lib/libutee/tee_user_mem.c:246
    11c8:	9300      	str	r3, [sp, #0]
    11ca:	4918      	ldr	r1, [pc, #96]	; (122c <check_elem+0x90>)
    11cc:	22f6      	movs	r2, #246	; 0xf6
    11ce:	4b18      	ldr	r3, [pc, #96]	; (1230 <check_elem+0x94>)
    11d0:	4479      	add	r1, pc
    11d2:	447b      	add	r3, pc
    11d4:	e01d      	b.n	1212 <check_elem+0x76>
/root/devel/optee/optee_os/lib/libutee/tee_user_mem.c:250
    11d6:	6843      	ldr	r3, [r0, #4]
    11d8:	685b      	ldr	r3, [r3, #4]
    11da:	681b      	ldr	r3, [r3, #0]
/root/devel/optee/optee_os/lib/libutee/tee_user_mem.c:251
    11dc:	b14b      	cbz	r3, 11f2 <check_elem+0x56>
/root/devel/optee/optee_os/lib/libutee/tee_user_mem.c:251 (discriminator 1)
    11de:	681a      	ldr	r2, [r3, #0]
    11e0:	4282      	cmp	r2, r0
    11e2:	d006      	beq.n	11f2 <check_elem+0x56>
/root/devel/optee/optee_os/lib/libutee/tee_user_mem.c:252
    11e4:	9300      	str	r3, [sp, #0]
    11e6:	4913      	ldr	r1, [pc, #76]	; (1234 <check_elem+0x98>)
    11e8:	22fc      	movs	r2, #252	; 0xfc
    11ea:	4b13      	ldr	r3, [pc, #76]	; (1238 <check_elem+0x9c>)
    11ec:	4479      	add	r1, pc
    11ee:	447b      	add	r3, pc
    11f0:	e00f      	b.n	1212 <check_elem+0x76>
check_elem_end():
/root/devel/optee/optee_os/lib/libutee/tee_user_mem.c:225
    11f2:	6883      	ldr	r3, [r0, #8]
    11f4:	4403      	add	r3, r0
    11f6:	f813 2c01 	ldrb.w	r2, [r3, #-1]
/root/devel/optee/optee_os/lib/libutee/tee_user_mem.c:226
    11fa:	b2c3      	uxtb	r3, r0
    11fc:	f083 03c5 	eor.w	r3, r3, #197	; 0xc5
/root/devel/optee/optee_os/lib/libutee/tee_user_mem.c:225
    1200:	429a      	cmp	r2, r3
    1202:	d00b      	beq.n	121c <check_elem+0x80>
/root/devel/optee/optee_os/lib/libutee/tee_user_mem.c:227
    1204:	490d      	ldr	r1, [pc, #52]	; (123c <check_elem+0xa0>)
    1206:	22e3      	movs	r2, #227	; 0xe3
    1208:	9000      	str	r0, [sp, #0]
    120a:	4b0d      	ldr	r3, [pc, #52]	; (1240 <check_elem+0xa4>)
    120c:	4479      	add	r1, pc
    120e:	447b      	add	r3, pc
    1210:	310b      	adds	r1, #11
    1212:	2001      	movs	r0, #1
    1214:	f7ff ffa8 	bl	1168 <print_buf>
/root/devel/optee/optee_os/lib/libutee/tee_user_mem.c:228
    1218:	2000      	movs	r0, #0
    121a:	e000      	b.n	121e <check_elem+0x82>
/root/devel/optee/optee_os/lib/libutee/tee_user_mem.c:231
    121c:	2001      	movs	r0, #1
check_elem():
/root/devel/optee/optee_os/lib/libutee/tee_user_mem.c:257
    121e:	b002      	add	sp, #8
    1220:	bd10      	pop	{r4, pc}
    1222:	bf00      	nop
    1224:	000050db 	.word	0x000050db
    1228:	000050f4 	.word	0x000050f4
    122c:	0000502c 	.word	0x0000502c
    1230:	000050ee 	.word	0x000050ee
    1234:	00005010 	.word	0x00005010
    1238:	000050d2 	.word	0x000050d2
    123c:	00004ff0 	.word	0x00004ff0
    1240:	000050bd 	.word	0x000050bd

00001244 <tee_user_mem_alloc>:
tee_user_mem_alloc():
/root/devel/optee/optee_os/lib/libutee/tee_user_mem.c:293
    1244:	b5f7      	push	{r0, r1, r2, r4, r5, r6, r7, lr}
/root/devel/optee/optee_os/lib/libutee/tee_user_mem.c:302
    1246:	1e06      	subs	r6, r0, #0
/root/devel/optee/optee_os/lib/libutee/tee_user_mem.c:293
    1248:	460d      	mov	r5, r1
/root/devel/optee/optee_os/lib/libutee/tee_user_mem.c:302
    124a:	db11      	blt.n	1270 <tee_user_mem_alloc+0x2c>
/root/devel/optee/optee_os/lib/libutee/tee_user_mem.c:307
    124c:	d04f      	beq.n	12ee <tee_user_mem_alloc+0xaa>
/root/devel/optee/optee_os/lib/libutee/tee_user_mem.c:313
    124e:	b189      	cbz	r1, 1274 <tee_user_mem_alloc+0x30>
    1250:	f1b1 4f00 	cmp.w	r1, #2147483648	; 0x80000000
    1254:	d00e      	beq.n	1274 <tee_user_mem_alloc+0x30>
/root/devel/optee/optee_os/lib/libutee/tee_user_mem.c:318
    1256:	4b28      	ldr	r3, [pc, #160]	; (12f8 <tee_user_mem_alloc+0xb4>)
    1258:	9101      	str	r1, [sp, #4]
    125a:	f44f 719f 	mov.w	r1, #318	; 0x13e
    125e:	4827      	ldr	r0, [pc, #156]	; (12fc <tee_user_mem_alloc+0xb8>)
    1260:	447b      	add	r3, pc
    1262:	4478      	add	r0, pc
    1264:	9300      	str	r3, [sp, #0]
    1266:	2301      	movs	r3, #1
    1268:	301a      	adds	r0, #26
    126a:	461a      	mov	r2, r3
    126c:	f001 fab2 	bl	27d4 <trace_printf>
/root/devel/optee/optee_os/lib/libutee/tee_user_mem.c:320
    1270:	2000      	movs	r0, #0
    1272:	e03f      	b.n	12f4 <tee_user_mem_alloc+0xb0>
/root/devel/optee/optee_os/lib/libutee/tee_user_mem.c:296
    1274:	f106 0711 	add.w	r7, r6, #17
/root/devel/optee/optee_os/lib/libutee/tee_user_mem.c:323
    1278:	4638      	mov	r0, r7
    127a:	f002 f9d9 	bl	3630 <utee_malloc>
/root/devel/optee/optee_os/lib/libutee/tee_user_mem.c:324
    127e:	4604      	mov	r4, r0
    1280:	2800      	cmp	r0, #0
    1282:	d0f5      	beq.n	1270 <tee_user_mem_alloc+0x2c>
heap_inc():
/root/devel/optee/optee_os/lib/libutee/tee_user_mem.c:196
    1284:	4b1e      	ldr	r3, [pc, #120]	; (1300 <tee_user_mem_alloc+0xbc>)
tee_user_mem_alloc():
/root/devel/optee/optee_os/lib/libutee/tee_user_mem.c:326
    1286:	6087      	str	r7, [r0, #8]
buf_addr():
/root/devel/optee/optee_os/lib/libutee/tee_user_mem.c:130
    1288:	3410      	adds	r4, #16
tee_user_mem_alloc():
/root/devel/optee/optee_os/lib/libutee/tee_user_mem.c:327
    128a:	60c5      	str	r5, [r0, #12]
/root/devel/optee/optee_os/lib/libutee/tee_user_mem.c:339
    128c:	491d      	ldr	r1, [pc, #116]	; (1304 <tee_user_mem_alloc+0xc0>)
heap_inc():
/root/devel/optee/optee_os/lib/libutee/tee_user_mem.c:196
    128e:	447b      	add	r3, pc
    1290:	681a      	ldr	r2, [r3, #0]
tee_user_mem_alloc():
/root/devel/optee/optee_os/lib/libutee/tee_user_mem.c:339
    1292:	4479      	add	r1, pc
    1294:	311a      	adds	r1, #26
heap_inc():
/root/devel/optee/optee_os/lib/libutee/tee_user_mem.c:196
    1296:	443a      	add	r2, r7
    1298:	601a      	str	r2, [r3, #0]
/root/devel/optee/optee_os/lib/libutee/tee_user_mem.c:198
    129a:	685a      	ldr	r2, [r3, #4]
    129c:	3201      	adds	r2, #1
    129e:	605a      	str	r2, [r3, #4]
/root/devel/optee/optee_os/lib/libutee/tee_user_mem.c:199
    12a0:	689a      	ldr	r2, [r3, #8]
    12a2:	4417      	add	r7, r2
    12a4:	609f      	str	r7, [r3, #8]
tee_user_mem_alloc():
/root/devel/optee/optee_os/lib/libutee/tee_user_mem.c:331
    12a6:	2300      	movs	r3, #0
    12a8:	6003      	str	r3, [r0, #0]
    12aa:	4b17      	ldr	r3, [pc, #92]	; (1308 <tee_user_mem_alloc+0xc4>)
    12ac:	447b      	add	r3, pc
    12ae:	685a      	ldr	r2, [r3, #4]
    12b0:	6042      	str	r2, [r0, #4]
    12b2:	6010      	str	r0, [r2, #0]
/root/devel/optee/optee_os/lib/libutee/tee_user_mem.c:335
    12b4:	f080 02c5 	eor.w	r2, r0, #197	; 0xc5
/root/devel/optee/optee_os/lib/libutee/tee_user_mem.c:331
    12b8:	6058      	str	r0, [r3, #4]
/root/devel/optee/optee_os/lib/libutee/tee_user_mem.c:335
    12ba:	1983      	adds	r3, r0, r6
    12bc:	741a      	strb	r2, [r3, #16]
/root/devel/optee/optee_os/lib/libutee/tee_user_mem.c:339
    12be:	4b13      	ldr	r3, [pc, #76]	; (130c <tee_user_mem_alloc+0xc8>)
    12c0:	f240 1253 	movw	r2, #339	; 0x153
    12c4:	9000      	str	r0, [sp, #0]
    12c6:	2003      	movs	r0, #3
    12c8:	447b      	add	r3, pc
    12ca:	f7ff ff4d 	bl	1168 <print_buf>
/root/devel/optee/optee_os/lib/libutee/tee_user_mem.c:343
    12ce:	b92d      	cbnz	r5, 12dc <tee_user_mem_alloc+0x98>
/root/devel/optee/optee_os/lib/libutee/tee_user_mem.c:344
    12d0:	4632      	mov	r2, r6
    12d2:	4629      	mov	r1, r5
    12d4:	4620      	mov	r0, r4
    12d6:	f002 fa04 	bl	36e2 <memset>
    12da:	e00a      	b.n	12f2 <tee_user_mem_alloc+0xae>
/root/devel/optee/optee_os/lib/libutee/tee_user_mem.c:346
    12dc:	f1b5 4f00 	cmp.w	r5, #2147483648	; 0x80000000
    12e0:	d107      	bne.n	12f2 <tee_user_mem_alloc+0xae>
/root/devel/optee/optee_os/lib/libutee/tee_user_mem.c:348
    12e2:	4632      	mov	r2, r6
    12e4:	21bb      	movs	r1, #187	; 0xbb
    12e6:	4620      	mov	r0, r4
    12e8:	f002 f9fb 	bl	36e2 <memset>
    12ec:	e001      	b.n	12f2 <tee_user_mem_alloc+0xae>
/root/devel/optee/optee_os/lib/libutee/tee_user_mem.c:309
    12ee:	2010      	movs	r0, #16
    12f0:	e000      	b.n	12f4 <tee_user_mem_alloc+0xb0>
buf_addr():
/root/devel/optee/optee_os/lib/libutee/tee_user_mem.c:130
    12f2:	4620      	mov	r0, r4
tee_user_mem_alloc():
/root/devel/optee/optee_os/lib/libutee/tee_user_mem.c:354
    12f4:	b003      	add	sp, #12
    12f6:	bdf0      	pop	{r4, r5, r6, r7, pc}
    12f8:	00005077 	.word	0x00005077
    12fc:	00004f9a 	.word	0x00004f9a
    1300:	0000792e 	.word	0x0000792e
    1304:	00004f6a 	.word	0x00004f6a
    1308:	00005dc8 	.word	0x00005dc8
    130c:	00005029 	.word	0x00005029

00001310 <tee_user_mem_free>:
tee_user_mem_free():
/root/devel/optee/optee_os/lib/libutee/tee_user_mem.c:419
    1310:	b537      	push	{r0, r1, r2, r4, r5, lr}
/root/devel/optee/optee_os/lib/libutee/tee_user_mem.c:426
    1312:	4604      	mov	r4, r0
    1314:	2800      	cmp	r0, #0
    1316:	d058      	beq.n	13ca <tee_user_mem_free+0xba>
/root/devel/optee/optee_os/lib/libutee/tee_user_mem.c:426 (discriminator 1)
    1318:	2810      	cmp	r0, #16
    131a:	d056      	beq.n	13ca <tee_user_mem_free+0xba>
is_buffer_valid():
/root/devel/optee/optee_os/lib/libutee/tee_user_mem.c:150
    131c:	4b2c      	ldr	r3, [pc, #176]	; (13d0 <tee_user_mem_free+0xc0>)
    131e:	447b      	add	r3, pc
    1320:	681d      	ldr	r5, [r3, #0]
    1322:	b12d      	cbz	r5, 1330 <tee_user_mem_free+0x20>
buf_addr():
/root/devel/optee/optee_os/lib/libutee/tee_user_mem.c:130
    1324:	f105 0310 	add.w	r3, r5, #16
is_buffer_valid():
/root/devel/optee/optee_os/lib/libutee/tee_user_mem.c:151
    1328:	429c      	cmp	r4, r3
    132a:	d00f      	beq.n	134c <tee_user_mem_free+0x3c>
/root/devel/optee/optee_os/lib/libutee/tee_user_mem.c:150
    132c:	682d      	ldr	r5, [r5, #0]
    132e:	e7f8      	b.n	1322 <tee_user_mem_free+0x12>
tee_user_mem_free():
/root/devel/optee/optee_os/lib/libutee/tee_user_mem.c:431
    1330:	4b28      	ldr	r3, [pc, #160]	; (13d4 <tee_user_mem_free+0xc4>)
    1332:	9401      	str	r4, [sp, #4]
    1334:	f240 11af 	movw	r1, #431	; 0x1af
    1338:	4827      	ldr	r0, [pc, #156]	; (13d8 <tee_user_mem_free+0xc8>)
    133a:	447b      	add	r3, pc
    133c:	4478      	add	r0, pc
    133e:	9300      	str	r3, [sp, #0]
    1340:	2301      	movs	r3, #1
    1342:	302d      	adds	r0, #45	; 0x2d
    1344:	461a      	mov	r2, r3
    1346:	f001 fa45 	bl	27d4 <trace_printf>
/root/devel/optee/optee_os/lib/libutee/tee_user_mem.c:432
    134a:	e03e      	b.n	13ca <tee_user_mem_free+0xba>
/root/devel/optee/optee_os/lib/libutee/tee_user_mem.c:438
    134c:	4923      	ldr	r1, [pc, #140]	; (13dc <tee_user_mem_free+0xcc>)
    134e:	2003      	movs	r0, #3
    1350:	9500      	str	r5, [sp, #0]
    1352:	4b23      	ldr	r3, [pc, #140]	; (13e0 <tee_user_mem_free+0xd0>)
    1354:	f44f 72db 	mov.w	r2, #438	; 0x1b6
    1358:	4479      	add	r1, pc
    135a:	447b      	add	r3, pc
    135c:	312d      	adds	r1, #45	; 0x2d
    135e:	f7ff ff03 	bl	1168 <print_buf>
/root/devel/optee/optee_os/lib/libutee/tee_user_mem.c:441
    1362:	4628      	mov	r0, r5
    1364:	f7ff ff1a 	bl	119c <check_elem>
    1368:	b948      	cbnz	r0, 137e <tee_user_mem_free+0x6e>
    136a:	491e      	ldr	r1, [pc, #120]	; (13e4 <tee_user_mem_free+0xd4>)
    136c:	f240 12b9 	movw	r2, #441	; 0x1b9
    1370:	481d      	ldr	r0, [pc, #116]	; (13e8 <tee_user_mem_free+0xd8>)
    1372:	4479      	add	r1, pc
    1374:	4478      	add	r0, pc
    1376:	f000 f955 	bl	1624 <_assert_log>
    137a:	f000 f969 	bl	1650 <_assert_break>
/root/devel/optee/optee_os/lib/libutee/tee_user_mem.c:444
    137e:	f854 3c10 	ldr.w	r3, [r4, #-16]
    1382:	b11b      	cbz	r3, 138c <tee_user_mem_free+0x7c>
    1384:	f854 2c0c 	ldr.w	r2, [r4, #-12]
    1388:	605a      	str	r2, [r3, #4]
    138a:	e004      	b.n	1396 <tee_user_mem_free+0x86>
    138c:	4a17      	ldr	r2, [pc, #92]	; (13ec <tee_user_mem_free+0xdc>)
    138e:	f854 1c0c 	ldr.w	r1, [r4, #-12]
    1392:	447a      	add	r2, pc
    1394:	6051      	str	r1, [r2, #4]
    1396:	f854 2c0c 	ldr.w	r2, [r4, #-12]
/root/devel/optee/optee_os/lib/libutee/tee_user_mem.c:455
    139a:	4628      	mov	r0, r5
/root/devel/optee/optee_os/lib/libutee/tee_user_mem.c:444
    139c:	6013      	str	r3, [r2, #0]
heap_dec():
/root/devel/optee/optee_os/lib/libutee/tee_user_mem.c:206
    139e:	4b14      	ldr	r3, [pc, #80]	; (13f0 <tee_user_mem_free+0xe0>)
tee_user_mem_free():
/root/devel/optee/optee_os/lib/libutee/tee_user_mem.c:446
    13a0:	f854 2c08 	ldr.w	r2, [r4, #-8]
heap_dec():
/root/devel/optee/optee_os/lib/libutee/tee_user_mem.c:206
    13a4:	447b      	add	r3, pc
    13a6:	6819      	ldr	r1, [r3, #0]
    13a8:	1a89      	subs	r1, r1, r2
    13aa:	6019      	str	r1, [r3, #0]
/root/devel/optee/optee_os/lib/libutee/tee_user_mem.c:208
    13ac:	6859      	ldr	r1, [r3, #4]
    13ae:	3901      	subs	r1, #1
    13b0:	6059      	str	r1, [r3, #4]
/root/devel/optee/optee_os/lib/libutee/tee_user_mem.c:209
    13b2:	6899      	ldr	r1, [r3, #8]
    13b4:	1a89      	subs	r1, r1, r2
    13b6:	6099      	str	r1, [r3, #8]
tee_user_mem_free():
/root/devel/optee/optee_os/lib/libutee/tee_user_mem.c:455
    13b8:	21aa      	movs	r1, #170	; 0xaa
    13ba:	f002 f992 	bl	36e2 <memset>
/root/devel/optee/optee_os/lib/libutee/tee_user_mem.c:458
    13be:	4628      	mov	r0, r5
/root/devel/optee/optee_os/lib/libutee/tee_user_mem.c:461
    13c0:	b003      	add	sp, #12
    13c2:	e8bd 4030 	ldmia.w	sp!, {r4, r5, lr}
/root/devel/optee/optee_os/lib/libutee/tee_user_mem.c:458
    13c6:	f002 b93c 	b.w	3642 <utee_free>
/root/devel/optee/optee_os/lib/libutee/tee_user_mem.c:461
    13ca:	b003      	add	sp, #12
    13cc:	bd30      	pop	{r4, r5, pc}
    13ce:	bf00      	nop
    13d0:	00005d56 	.word	0x00005d56
    13d4:	00004fd0 	.word	0x00004fd0
    13d8:	00004ec0 	.word	0x00004ec0
    13dc:	00004ea4 	.word	0x00004ea4
    13e0:	00004fca 	.word	0x00004fca
    13e4:	00004f17 	.word	0x00004f17
    13e8:	00004f88 	.word	0x00004f88
    13ec:	00005ce2 	.word	0x00005ce2
    13f0:	00007818 	.word	0x00007818

000013f4 <tee_user_mem_realloc>:
tee_user_mem_realloc():
/root/devel/optee/optee_os/lib/libutee/tee_user_mem.c:363
    13f4:	b5f8      	push	{r3, r4, r5, r6, r7, lr}
/root/devel/optee/optee_os/lib/libutee/tee_user_mem.c:370
    13f6:	1e0f      	subs	r7, r1, #0
/root/devel/optee/optee_os/lib/libutee/tee_user_mem.c:363
    13f8:	4605      	mov	r5, r0
/root/devel/optee/optee_os/lib/libutee/tee_user_mem.c:370
    13fa:	db12      	blt.n	1422 <tee_user_mem_realloc+0x2e>
/root/devel/optee/optee_os/lib/libutee/tee_user_mem.c:380
    13fc:	b158      	cbz	r0, 1416 <tee_user_mem_realloc+0x22>
/root/devel/optee/optee_os/lib/libutee/tee_user_mem.c:380 (discriminator 1)
    13fe:	2810      	cmp	r0, #16
    1400:	d009      	beq.n	1416 <tee_user_mem_realloc+0x22>
is_buffer_valid():
/root/devel/optee/optee_os/lib/libutee/tee_user_mem.c:150
    1402:	4b15      	ldr	r3, [pc, #84]	; (1458 <tee_user_mem_realloc+0x64>)
    1404:	447b      	add	r3, pc
    1406:	681a      	ldr	r2, [r3, #0]
    1408:	b12a      	cbz	r2, 1416 <tee_user_mem_realloc+0x22>
buf_addr():
/root/devel/optee/optee_os/lib/libutee/tee_user_mem.c:130
    140a:	f102 0010 	add.w	r0, r2, #16
is_buffer_valid():
/root/devel/optee/optee_os/lib/libutee/tee_user_mem.c:151
    140e:	42a8      	cmp	r0, r5
    1410:	d009      	beq.n	1426 <tee_user_mem_realloc+0x32>
/root/devel/optee/optee_os/lib/libutee/tee_user_mem.c:150
    1412:	6812      	ldr	r2, [r2, #0]
    1414:	e7f8      	b.n	1408 <tee_user_mem_realloc+0x14>
tee_user_mem_realloc():
/root/devel/optee/optee_os/lib/libutee/tee_user_mem.c:381
    1416:	4638      	mov	r0, r7
    1418:	2100      	movs	r1, #0
/root/devel/optee/optee_os/lib/libutee/tee_user_mem.c:412
    141a:	e8bd 40f8 	ldmia.w	sp!, {r3, r4, r5, r6, r7, lr}
/root/devel/optee/optee_os/lib/libutee/tee_user_mem.c:381
    141e:	f7ff bf11 	b.w	1244 <tee_user_mem_alloc>
/root/devel/optee/optee_os/lib/libutee/tee_user_mem.c:372
    1422:	2000      	movs	r0, #0
    1424:	bdf8      	pop	{r3, r4, r5, r6, r7, pc}
buf_size():
/root/devel/optee/optee_os/lib/libutee/tee_user_mem.c:135
    1426:	f855 6c08 	ldr.w	r6, [r5, #-8]
    142a:	3e11      	subs	r6, #17
tee_user_mem_realloc():
/root/devel/optee/optee_os/lib/libutee/tee_user_mem.c:392
    142c:	42b7      	cmp	r7, r6
    142e:	d012      	beq.n	1456 <tee_user_mem_realloc+0x62>
/root/devel/optee/optee_os/lib/libutee/tee_user_mem.c:402
    1430:	f855 1c04 	ldr.w	r1, [r5, #-4]
    1434:	4638      	mov	r0, r7
    1436:	f7ff ff05 	bl	1244 <tee_user_mem_alloc>
/root/devel/optee/optee_os/lib/libutee/tee_user_mem.c:403
    143a:	4604      	mov	r4, r0
    143c:	b148      	cbz	r0, 1452 <tee_user_mem_realloc+0x5e>
/root/devel/optee/optee_os/lib/libutee/tee_user_mem.c:404
    143e:	42be      	cmp	r6, r7
    1440:	4632      	mov	r2, r6
    1442:	4629      	mov	r1, r5
    1444:	bf28      	it	cs
    1446:	463a      	movcs	r2, r7
    1448:	f002 f925 	bl	3696 <memcpy>
/root/devel/optee/optee_os/lib/libutee/tee_user_mem.c:407
    144c:	4628      	mov	r0, r5
    144e:	f7ff ff5f 	bl	1310 <tee_user_mem_free>
    1452:	4620      	mov	r0, r4
    1454:	bdf8      	pop	{r3, r4, r5, r6, r7, pc}
/root/devel/optee/optee_os/lib/libutee/tee_user_mem.c:412
    1456:	bdf8      	pop	{r3, r4, r5, r6, r7, pc}
    1458:	00005c70 	.word	0x00005c70

0000145c <tee_user_mem_mark_heap>:
tee_user_mem_mark_heap():
/root/devel/optee/optee_os/lib/libutee/tee_user_mem.c:471
    145c:	4b02      	ldr	r3, [pc, #8]	; (1468 <tee_user_mem_mark_heap+0xc>)
    145e:	2200      	movs	r2, #0
    1460:	447b      	add	r3, pc
    1462:	601a      	str	r2, [r3, #0]
    1464:	4770      	bx	lr
    1466:	bf00      	nop
    1468:	0000775c 	.word	0x0000775c

0000146c <tee_user_mem_check_heap>:
tee_user_mem_check_heap():
/root/devel/optee/optee_os/lib/libutee/tee_user_mem.c:481
    146c:	b537      	push	{r0, r1, r2, r4, r5, lr}
/root/devel/optee/optee_os/lib/libutee/tee_user_mem.c:485
    146e:	4d15      	ldr	r5, [pc, #84]	; (14c4 <tee_user_mem_check_heap+0x58>)
    1470:	447d      	add	r5, pc
    1472:	682c      	ldr	r4, [r5, #0]
    1474:	b174      	cbz	r4, 1494 <tee_user_mem_check_heap+0x28>
/root/devel/optee/optee_os/lib/libutee/tee_user_mem.c:486
    1476:	4b14      	ldr	r3, [pc, #80]	; (14c8 <tee_user_mem_check_heap+0x5c>)
    1478:	9401      	str	r4, [sp, #4]
    147a:	f44f 71f3 	mov.w	r1, #486	; 0x1e6
    147e:	4813      	ldr	r0, [pc, #76]	; (14cc <tee_user_mem_check_heap+0x60>)
    1480:	447b      	add	r3, pc
    1482:	4478      	add	r0, pc
    1484:	9300      	str	r3, [sp, #0]
    1486:	2301      	movs	r3, #1
    1488:	303f      	adds	r0, #63	; 0x3f
    148a:	461a      	mov	r2, r3
    148c:	f001 f9a2 	bl	27d4 <trace_printf>
/root/devel/optee/optee_os/lib/libutee/tee_user_mem.c:488
    1490:	682c      	ldr	r4, [r5, #0]
    1492:	e013      	b.n	14bc <tee_user_mem_check_heap+0x50>
is_mem_coherent():
/root/devel/optee/optee_os/lib/libutee/tee_user_mem.c:264
    1494:	4b0e      	ldr	r3, [pc, #56]	; (14d0 <tee_user_mem_check_heap+0x64>)
    1496:	447b      	add	r3, pc
    1498:	681d      	ldr	r5, [r3, #0]
    149a:	b17d      	cbz	r5, 14bc <tee_user_mem_check_heap+0x50>
/root/devel/optee/optee_os/lib/libutee/tee_user_mem.c:265
    149c:	4628      	mov	r0, r5
    149e:	f7ff fe7d 	bl	119c <check_elem>
    14a2:	b948      	cbnz	r0, 14b8 <tee_user_mem_check_heap+0x4c>
/root/devel/optee/optee_os/lib/libutee/tee_user_mem.c:266
    14a4:	490b      	ldr	r1, [pc, #44]	; (14d4 <tee_user_mem_check_heap+0x68>)
    14a6:	f44f 7285 	mov.w	r2, #266	; 0x10a
    14aa:	480b      	ldr	r0, [pc, #44]	; (14d8 <tee_user_mem_check_heap+0x6c>)
    14ac:	4479      	add	r1, pc
    14ae:	4478      	add	r0, pc
    14b0:	f000 f8b8 	bl	1624 <_assert_log>
    14b4:	f000 f8cc 	bl	1650 <_assert_break>
/root/devel/optee/optee_os/lib/libutee/tee_user_mem.c:264
    14b8:	682d      	ldr	r5, [r5, #0]
    14ba:	e7ee      	b.n	149a <tee_user_mem_check_heap+0x2e>
tee_user_mem_check_heap():
/root/devel/optee/optee_os/lib/libutee/tee_user_mem.c:495
    14bc:	4620      	mov	r0, r4
    14be:	b003      	add	sp, #12
    14c0:	bd30      	pop	{r4, r5, pc}
    14c2:	bf00      	nop
    14c4:	0000774c 	.word	0x0000774c
    14c8:	00004eab 	.word	0x00004eab
    14cc:	00004d7a 	.word	0x00004d7a
    14d0:	00005bde 	.word	0x00005bde
    14d4:	00004ddd 	.word	0x00004ddd
    14d8:	0000505d 	.word	0x0000505d

000014dc <tee_user_mem_garbage>:
tee_user_mem_garbage():
/root/devel/optee/optee_os/lib/libutee/tee_user_mem.c:530
    14dc:	b573      	push	{r0, r1, r4, r5, r6, lr}
tee_user_mem_status():
/root/devel/optee/optee_os/lib/libutee/tee_user_mem.c:506
    14de:	4d1e      	ldr	r5, [pc, #120]	; (1558 <tee_user_mem_garbage+0x7c>)
    14e0:	447d      	add	r5, pc
    14e2:	686b      	ldr	r3, [r5, #4]
    14e4:	2b00      	cmp	r3, #0
    14e6:	dd19      	ble.n	151c <tee_user_mem_garbage+0x40>
/root/devel/optee/optee_os/lib/libutee/tee_user_mem.c:507
    14e8:	9301      	str	r3, [sp, #4]
    14ea:	4c1c      	ldr	r4, [pc, #112]	; (155c <tee_user_mem_garbage+0x80>)
    14ec:	2202      	movs	r2, #2
    14ee:	4b1c      	ldr	r3, [pc, #112]	; (1560 <tee_user_mem_garbage+0x84>)
    14f0:	f240 11fb 	movw	r1, #507	; 0x1fb
    14f4:	447c      	add	r4, pc
    14f6:	447b      	add	r3, pc
    14f8:	3457      	adds	r4, #87	; 0x57
    14fa:	4620      	mov	r0, r4
    14fc:	9300      	str	r3, [sp, #0]
    14fe:	2301      	movs	r3, #1
    1500:	f001 f968 	bl	27d4 <trace_printf>
/root/devel/optee/optee_os/lib/libutee/tee_user_mem.c:508
    1504:	68ab      	ldr	r3, [r5, #8]
    1506:	2202      	movs	r2, #2
    1508:	f44f 71fe 	mov.w	r1, #508	; 0x1fc
    150c:	4620      	mov	r0, r4
    150e:	9301      	str	r3, [sp, #4]
    1510:	4b14      	ldr	r3, [pc, #80]	; (1564 <tee_user_mem_garbage+0x88>)
    1512:	447b      	add	r3, pc
    1514:	9300      	str	r3, [sp, #0]
    1516:	2301      	movs	r3, #1
    1518:	f001 f95c 	bl	27d4 <trace_printf>
/root/devel/optee/optee_os/lib/libutee/tee_user_mem.c:511
    151c:	4b12      	ldr	r3, [pc, #72]	; (1568 <tee_user_mem_garbage+0x8c>)
/root/devel/optee/optee_os/lib/libutee/tee_user_mem.c:512
    151e:	4d13      	ldr	r5, [pc, #76]	; (156c <tee_user_mem_garbage+0x90>)
    1520:	4e13      	ldr	r6, [pc, #76]	; (1570 <tee_user_mem_garbage+0x94>)
/root/devel/optee/optee_os/lib/libutee/tee_user_mem.c:511
    1522:	447b      	add	r3, pc
    1524:	681c      	ldr	r4, [r3, #0]
/root/devel/optee/optee_os/lib/libutee/tee_user_mem.c:512
    1526:	447d      	add	r5, pc
    1528:	447e      	add	r6, pc
    152a:	3557      	adds	r5, #87	; 0x57
/root/devel/optee/optee_os/lib/libutee/tee_user_mem.c:511
    152c:	b14c      	cbz	r4, 1542 <tee_user_mem_garbage+0x66>
/root/devel/optee/optee_os/lib/libutee/tee_user_mem.c:512
    152e:	9400      	str	r4, [sp, #0]
    1530:	4633      	mov	r3, r6
    1532:	f44f 7200 	mov.w	r2, #512	; 0x200
    1536:	4629      	mov	r1, r5
    1538:	2001      	movs	r0, #1
    153a:	f7ff fe15 	bl	1168 <print_buf>
/root/devel/optee/optee_os/lib/libutee/tee_user_mem.c:511
    153e:	6824      	ldr	r4, [r4, #0]
    1540:	e7f4      	b.n	152c <tee_user_mem_garbage+0x50>
tee_user_mem_garbage():
/root/devel/optee/optee_os/lib/libutee/tee_user_mem.c:535
    1542:	4c0c      	ldr	r4, [pc, #48]	; (1574 <tee_user_mem_garbage+0x98>)
    1544:	447c      	add	r4, pc
    1546:	6820      	ldr	r0, [r4, #0]
    1548:	b118      	cbz	r0, 1552 <tee_user_mem_garbage+0x76>
/root/devel/optee/optee_os/lib/libutee/tee_user_mem.c:536
    154a:	3010      	adds	r0, #16
    154c:	f7ff fee0 	bl	1310 <tee_user_mem_free>
    1550:	e7f9      	b.n	1546 <tee_user_mem_garbage+0x6a>
/root/devel/optee/optee_os/lib/libutee/tee_user_mem.c:537
    1552:	b002      	add	sp, #8
    1554:	bd70      	pop	{r4, r5, r6, pc}
    1556:	bf00      	nop
    1558:	000076dc 	.word	0x000076dc
    155c:	00004d08 	.word	0x00004d08
    1560:	00004e52 	.word	0x00004e52
    1564:	00004e45 	.word	0x00004e45
    1568:	00005b52 	.word	0x00005b52
    156c:	00004cd6 	.word	0x00004cd6
    1570:	00004a9c 	.word	0x00004a9c
    1574:	00005b30 	.word	0x00005b30

00001578 <trace_ext_puts>:
trace_ext_puts():
/root/devel/optee/optee_os/lib/libutee/trace_ext.c:39
    1578:	b510      	push	{r4, lr}
    157a:	4604      	mov	r4, r0
/root/devel/optee/optee_os/lib/libutee/trace_ext.c:40
    157c:	f002 f8b9 	bl	36f2 <strlen>
    1580:	4601      	mov	r1, r0
    1582:	4620      	mov	r0, r4
/root/devel/optee/optee_os/lib/libutee/trace_ext.c:41
    1584:	e8bd 4010 	ldmia.w	sp!, {r4, lr}
/root/devel/optee/optee_os/lib/libutee/trace_ext.c:40
    1588:	f003 be32 	b.w	51f0 <__utee_log_from_thumb>

0000158c <trace_ext_get_thread_id>:
trace_ext_get_thread_id():
/root/devel/optee/optee_os/lib/libutee/trace_ext.c:46
    158c:	f04f 30ff 	mov.w	r0, #4294967295
    1590:	4770      	bx	lr

00001592 <puts>:
puts():
/root/devel/optee/optee_os/lib/libutee/trace_ext.c:93
    1592:	b510      	push	{r4, lr}
    1594:	4604      	mov	r4, r0
/root/devel/optee/optee_os/lib/libutee/trace_ext.c:94
    1596:	f001 f913 	bl	27c0 <trace_get_level>
    159a:	2800      	cmp	r0, #0
    159c:	dd02      	ble.n	15a4 <puts+0x12>
/root/devel/optee/optee_os/lib/libutee/trace_ext.c:95
    159e:	4620      	mov	r0, r4
    15a0:	f7ff ffea 	bl	1578 <trace_ext_puts>
/root/devel/optee/optee_os/lib/libutee/trace_ext.c:97
    15a4:	2001      	movs	r0, #1
    15a6:	bd10      	pop	{r4, pc}

000015a8 <printf>:
printf():
/root/devel/optee/optee_os/lib/libutee/trace_ext.c:56
    15a8:	b40f      	push	{r0, r1, r2, r3}
    15aa:	b570      	push	{r4, r5, r6, lr}
    15ac:	b0c2      	sub	sp, #264	; 0x108
/root/devel/optee/optee_os/lib/libutee/trace_ext.c:64
    15ae:	f001 f907 	bl	27c0 <trace_get_level>
    15b2:	2800      	cmp	r0, #0
    15b4:	dd2b      	ble.n	160e <printf+0x66>
/root/devel/optee/optee_os/lib/libutee/trace_ext.c:67
    15b6:	4e19      	ldr	r6, [pc, #100]	; (161c <printf+0x74>)
    15b8:	ad02      	add	r5, sp, #8
    15ba:	f44f 7280 	mov.w	r2, #256	; 0x100
    15be:	4628      	mov	r0, r5
    15c0:	447e      	add	r6, pc
    15c2:	4631      	mov	r1, r6
    15c4:	f002 f89d 	bl	3702 <strlcpy>
/root/devel/optee/optee_os/lib/libutee/trace_ext.c:68
    15c8:	28ff      	cmp	r0, #255	; 0xff
    15ca:	d904      	bls.n	15d6 <printf+0x2e>
/root/devel/optee/optee_os/lib/libutee/trace_ext.c:69
    15cc:	f106 000a 	add.w	r0, r6, #10
    15d0:	f7ff ffdf 	bl	1592 <puts>
    15d4:	e01b      	b.n	160e <printf+0x66>
/root/devel/optee/optee_os/lib/libutee/trace_ext.c:73
    15d6:	ab47      	add	r3, sp, #284	; 0x11c
/root/devel/optee/optee_os/lib/libutee/trace_ext.c:74
    15d8:	f5c0 7180 	rsb	r1, r0, #256	; 0x100
    15dc:	9a46      	ldr	r2, [sp, #280]	; 0x118
    15de:	4428      	add	r0, r5
/root/devel/optee/optee_os/lib/libutee/trace_ext.c:73
    15e0:	9301      	str	r3, [sp, #4]
/root/devel/optee/optee_os/lib/libutee/trace_ext.c:74
    15e2:	f002 f841 	bl	3668 <vsnprintf>
/root/devel/optee/optee_os/lib/libutee/trace_ext.c:77
    15e6:	1e04      	subs	r4, r0, #0
    15e8:	da02      	bge.n	15f0 <printf+0x48>
/root/devel/optee/optee_os/lib/libutee/trace_ext.c:78
    15ea:	f106 000a 	add.w	r0, r6, #10
    15ee:	e00a      	b.n	1606 <printf+0x5e>
/root/devel/optee/optee_os/lib/libutee/trace_ext.c:81
    15f0:	2cf6      	cmp	r4, #246	; 0xf6
    15f2:	dd07      	ble.n	1604 <printf+0x5c>
/root/devel/optee/optee_os/lib/libutee/trace_ext.c:82
    15f4:	490a      	ldr	r1, [pc, #40]	; (1620 <printf+0x78>)
    15f6:	2205      	movs	r2, #5
    15f8:	f20d 1003 	addw	r0, sp, #259	; 0x103
/root/devel/optee/optee_os/lib/libutee/trace_ext.c:84
    15fc:	24f1      	movs	r4, #241	; 0xf1
/root/devel/optee/optee_os/lib/libutee/trace_ext.c:82
    15fe:	4479      	add	r1, pc
    1600:	f002 f849 	bl	3696 <memcpy>
/root/devel/optee/optee_os/lib/libutee/trace_ext.c:87
    1604:	4628      	mov	r0, r5
    1606:	f7ff ffc4 	bl	1592 <puts>
/root/devel/optee/optee_os/lib/libutee/trace_ext.c:89
    160a:	4620      	mov	r0, r4
    160c:	e000      	b.n	1610 <printf+0x68>
/root/devel/optee/optee_os/lib/libutee/trace_ext.c:65
    160e:	2000      	movs	r0, #0
/root/devel/optee/optee_os/lib/libutee/trace_ext.c:90
    1610:	b042      	add	sp, #264	; 0x108
    1612:	e8bd 4070 	ldmia.w	sp!, {r4, r5, r6, lr}
    1616:	b004      	add	sp, #16
    1618:	4770      	bx	lr
    161a:	bf00      	nop
    161c:	00004da3 	.word	0x00004da3
    1620:	00004d80 	.word	0x00004d80

00001624 <_assert_log>:
_assert_log():
/root/devel/optee/optee_os/lib/libutee/assert.c:35
    1624:	b51f      	push	{r0, r1, r2, r3, r4, lr}
/root/devel/optee/optee_os/lib/libutee/assert.c:36
    1626:	4b08      	ldr	r3, [pc, #32]	; (1648 <_assert_log+0x24>)
    1628:	9001      	str	r0, [sp, #4]
    162a:	4808      	ldr	r0, [pc, #32]	; (164c <_assert_log+0x28>)
    162c:	9203      	str	r2, [sp, #12]
    162e:	9102      	str	r1, [sp, #8]
    1630:	2124      	movs	r1, #36	; 0x24
    1632:	447b      	add	r3, pc
    1634:	4478      	add	r0, pc
    1636:	9300      	str	r3, [sp, #0]
    1638:	2301      	movs	r3, #1
    163a:	461a      	mov	r2, r3
    163c:	f001 f8ca 	bl	27d4 <trace_printf>
/root/devel/optee/optee_os/lib/libutee/assert.c:37
    1640:	b005      	add	sp, #20
    1642:	f85d fb04 	ldr.w	pc, [sp], #4
    1646:	bf00      	nop
    1648:	00004d5d 	.word	0x00004d5d
    164c:	00004d4f 	.word	0x00004d4f

00001650 <_assert_break>:
_assert_break():
/root/devel/optee/optee_os/lib/libutee/assert.c:40
    1650:	b508      	push	{r3, lr}
/root/devel/optee/optee_os/lib/libutee/assert.c:41
    1652:	4801      	ldr	r0, [pc, #4]	; (1658 <_assert_break+0x8>)
    1654:	f7fe ee58 	blx	308 <utee_panic>
    1658:	ffff0000 	.word	0xffff0000

0000165c <raw_malloc_save_max_alloced_size>:
raw_malloc_save_max_alloced_size():
/root/devel/optee/optee_os/lib/libutils/isoc/bget_malloc.c:153
    165c:	4b03      	ldr	r3, [pc, #12]	; (166c <raw_malloc_save_max_alloced_size+0x10>)
    165e:	447b      	add	r3, pc
    1660:	681a      	ldr	r2, [r3, #0]
    1662:	6859      	ldr	r1, [r3, #4]
    1664:	428a      	cmp	r2, r1
/root/devel/optee/optee_os/lib/libutils/isoc/bget_malloc.c:154
    1666:	bf88      	it	hi
    1668:	605a      	strhi	r2, [r3, #4]
    166a:	4770      	bx	lr
    166c:	0000756a 	.word	0x0000756a

00001670 <create_free_block>:
create_free_block():
/root/devel/optee/optee_os/lib/libutils/isoc/bget_malloc.c:381
    1670:	b508      	push	{r3, lr}
/root/devel/optee/optee_os/lib/libutils/isoc/bget_malloc.c:382
    1672:	1843      	adds	r3, r0, r1
    1674:	4293      	cmp	r3, r2
    1676:	d006      	beq.n	1686 <create_free_block+0x16>
/root/devel/optee/optee_os/lib/libutils/isoc/bget_malloc.c:382 (discriminator 1)
    1678:	491e      	ldr	r1, [pc, #120]	; (16f4 <create_free_block+0x84>)
    167a:	f44f 72bf 	mov.w	r2, #382	; 0x17e
    167e:	481e      	ldr	r0, [pc, #120]	; (16f8 <create_free_block+0x88>)
    1680:	4479      	add	r1, pc
    1682:	4478      	add	r0, pc
    1684:	e008      	b.n	1698 <create_free_block+0x28>
/root/devel/optee/optee_os/lib/libutils/isoc/bget_malloc.c:383
    1686:	685b      	ldr	r3, [r3, #4]
    1688:	2b00      	cmp	r3, #0
    168a:	db09      	blt.n	16a0 <create_free_block+0x30>
/root/devel/optee/optee_os/lib/libutils/isoc/bget_malloc.c:383 (discriminator 1)
    168c:	491b      	ldr	r1, [pc, #108]	; (16fc <create_free_block+0x8c>)
    168e:	f240 127f 	movw	r2, #383	; 0x17f
    1692:	481b      	ldr	r0, [pc, #108]	; (1700 <create_free_block+0x90>)
    1694:	4479      	add	r1, pc
    1696:	4478      	add	r0, pc
    1698:	f7ff ffc4 	bl	1624 <_assert_log>
    169c:	f7ff ffd8 	bl	1650 <_assert_break>
/root/devel/optee/optee_os/lib/libutils/isoc/bget_malloc.c:385
    16a0:	5843      	ldr	r3, [r0, r1]
    16a2:	b133      	cbz	r3, 16b2 <create_free_block+0x42>
/root/devel/optee/optee_os/lib/libutils/isoc/bget_malloc.c:385 (discriminator 1)
    16a4:	4917      	ldr	r1, [pc, #92]	; (1704 <create_free_block+0x94>)
    16a6:	f240 1281 	movw	r2, #385	; 0x181
    16aa:	4817      	ldr	r0, [pc, #92]	; (1708 <create_free_block+0x98>)
    16ac:	4479      	add	r1, pc
    16ae:	4478      	add	r0, pc
    16b0:	e7f2      	b.n	1698 <create_free_block+0x28>
/root/devel/optee/optee_os/lib/libutils/isoc/bget_malloc.c:389
    16b2:	6003      	str	r3, [r0, #0]
/root/devel/optee/optee_os/lib/libutils/isoc/bget_malloc.c:395
    16b4:	4b15      	ldr	r3, [pc, #84]	; (170c <create_free_block+0x9c>)
/root/devel/optee/optee_os/lib/libutils/isoc/bget_malloc.c:388
    16b6:	6041      	str	r1, [r0, #4]
/root/devel/optee/optee_os/lib/libutils/isoc/bget_malloc.c:392
    16b8:	5041      	str	r1, [r0, r1]
/root/devel/optee/optee_os/lib/libutils/isoc/bget_malloc.c:395
    16ba:	447b      	add	r3, pc
    16bc:	68d9      	ldr	r1, [r3, #12]
    16be:	688a      	ldr	r2, [r1, #8]
    16c0:	429a      	cmp	r2, r3
    16c2:	d006      	beq.n	16d2 <create_free_block+0x62>
/root/devel/optee/optee_os/lib/libutils/isoc/bget_malloc.c:395 (discriminator 1)
    16c4:	4912      	ldr	r1, [pc, #72]	; (1710 <create_free_block+0xa0>)
    16c6:	f240 128b 	movw	r2, #395	; 0x18b
    16ca:	4812      	ldr	r0, [pc, #72]	; (1714 <create_free_block+0xa4>)
    16cc:	4479      	add	r1, pc
    16ce:	4478      	add	r0, pc
    16d0:	e7e2      	b.n	1698 <create_free_block+0x28>
/root/devel/optee/optee_os/lib/libutils/isoc/bget_malloc.c:396
    16d2:	6893      	ldr	r3, [r2, #8]
    16d4:	68db      	ldr	r3, [r3, #12]
    16d6:	4293      	cmp	r3, r2
    16d8:	d006      	beq.n	16e8 <create_free_block+0x78>
/root/devel/optee/optee_os/lib/libutils/isoc/bget_malloc.c:396 (discriminator 1)
    16da:	490f      	ldr	r1, [pc, #60]	; (1718 <create_free_block+0xa8>)
    16dc:	f44f 72c6 	mov.w	r2, #396	; 0x18c
    16e0:	480e      	ldr	r0, [pc, #56]	; (171c <create_free_block+0xac>)
    16e2:	4479      	add	r1, pc
    16e4:	4478      	add	r0, pc
    16e6:	e7d7      	b.n	1698 <create_free_block+0x28>
/root/devel/optee/optee_os/lib/libutils/isoc/bget_malloc.c:397
    16e8:	6083      	str	r3, [r0, #8]
/root/devel/optee/optee_os/lib/libutils/isoc/bget_malloc.c:398
    16ea:	60c1      	str	r1, [r0, #12]
/root/devel/optee/optee_os/lib/libutils/isoc/bget_malloc.c:399
    16ec:	60d8      	str	r0, [r3, #12]
/root/devel/optee/optee_os/lib/libutils/isoc/bget_malloc.c:400
    16ee:	68c3      	ldr	r3, [r0, #12]
    16f0:	6098      	str	r0, [r3, #8]
    16f2:	bd08      	pop	{r3, pc}
    16f4:	00004d2e 	.word	0x00004d2e
    16f8:	00004d4c 	.word	0x00004d4c
    16fc:	00004d1a 	.word	0x00004d1a
    1700:	00004d54 	.word	0x00004d54
    1704:	00004d02 	.word	0x00004d02
    1708:	00004d4a 	.word	0x00004d4a
    170c:	000059c2 	.word	0x000059c2
    1710:	00004ce2 	.word	0x00004ce2
    1714:	00004d3c 	.word	0x00004d3c
    1718:	00004ccc 	.word	0x00004ccc
    171c:	00004d4f 	.word	0x00004d4f

00001720 <bget>:
bget():
/root/devel/optee/optee_os/lib/libutils/isoc/bget.c:586
    1720:	2800      	cmp	r0, #0
/root/devel/optee/optee_os/lib/libutils/isoc/bget.c:575
    1722:	b538      	push	{r3, r4, r5, lr}
/root/devel/optee/optee_os/lib/libutils/isoc/bget.c:586
    1724:	dc06      	bgt.n	1734 <bget+0x14>
/root/devel/optee/optee_os/lib/libutils/isoc/bget.c:586 (discriminator 1)
    1726:	4937      	ldr	r1, [pc, #220]	; (1804 <bget+0xe4>)
    1728:	f240 224a 	movw	r2, #586	; 0x24a
    172c:	4836      	ldr	r0, [pc, #216]	; (1808 <bget+0xe8>)
    172e:	4479      	add	r1, pc
    1730:	4478      	add	r0, pc
    1732:	e01e      	b.n	1772 <bget+0x52>
/root/devel/optee/optee_os/lib/libutils/isoc/bget.c:607
    1734:	4935      	ldr	r1, [pc, #212]	; (180c <bget+0xec>)
/root/devel/optee/optee_os/lib/libutils/isoc/bget.c:589
    1736:	2808      	cmp	r0, #8
    1738:	bfb8      	it	lt
    173a:	2008      	movlt	r0, #8
/root/devel/optee/optee_os/lib/libutils/isoc/bget.c:593
    173c:	1dc2      	adds	r2, r0, #7
    173e:	f022 0207 	bic.w	r2, r2, #7
/root/devel/optee/optee_os/lib/libutils/isoc/bget.c:607
    1742:	4479      	add	r1, pc
/root/devel/optee/optee_os/lib/libutils/isoc/bget.c:597
    1744:	3208      	adds	r2, #8
/root/devel/optee/optee_os/lib/libutils/isoc/bget.c:607
    1746:	688b      	ldr	r3, [r1, #8]
/root/devel/optee/optee_os/lib/libutils/isoc/bget.c:628
    1748:	4608      	mov	r0, r1
    174a:	e000      	b.n	174e <bget+0x2e>
/root/devel/optee/optee_os/lib/libutils/isoc/bget.c:691
    174c:	689b      	ldr	r3, [r3, #8]
/root/devel/optee/optee_os/lib/libutils/isoc/bget.c:628
    174e:	4283      	cmp	r3, r0
    1750:	d056      	beq.n	1800 <bget+0xe0>
/root/devel/optee/optee_os/lib/libutils/isoc/bget.c:629
    1752:	6859      	ldr	r1, [r3, #4]
    1754:	4291      	cmp	r1, r2
    1756:	dbf9      	blt.n	174c <bget+0x2c>
/root/devel/optee/optee_os/lib/libutils/isoc/bget.c:640
    1758:	1a8c      	subs	r4, r1, r2
    175a:	2c10      	cmp	r4, #16
    175c:	d91d      	bls.n	179a <bget+0x7a>
/root/devel/optee/optee_os/lib/libutils/isoc/bget.c:643
    175e:	1918      	adds	r0, r3, r4
/root/devel/optee/optee_os/lib/libutils/isoc/bget.c:645
    1760:	5885      	ldr	r5, [r0, r2]
    1762:	428d      	cmp	r5, r1
    1764:	d009      	beq.n	177a <bget+0x5a>
/root/devel/optee/optee_os/lib/libutils/isoc/bget.c:645 (discriminator 1)
    1766:	492a      	ldr	r1, [pc, #168]	; (1810 <bget+0xf0>)
    1768:	f240 2285 	movw	r2, #645	; 0x285
    176c:	4829      	ldr	r0, [pc, #164]	; (1814 <bget+0xf4>)
    176e:	4479      	add	r1, pc
    1770:	4478      	add	r0, pc
    1772:	f7ff ff57 	bl	1624 <_assert_log>
    1776:	f7ff ff6b 	bl	1650 <_assert_break>
/root/devel/optee/optee_os/lib/libutils/isoc/bget.c:647
    177a:	605c      	str	r4, [r3, #4]
/root/devel/optee/optee_os/lib/libutils/isoc/bget.c:649
    177c:	511c      	str	r4, [r3, r4]
/root/devel/optee/optee_os/lib/libutils/isoc/bget.c:651
    177e:	4253      	negs	r3, r2
    1780:	6043      	str	r3, [r0, #4]
/root/devel/optee/optee_os/lib/libutils/isoc/bget.c:653
    1782:	2300      	movs	r3, #0
    1784:	5083      	str	r3, [r0, r2]
/root/devel/optee/optee_os/lib/libutils/isoc/bget.c:656
    1786:	4b24      	ldr	r3, [pc, #144]	; (1818 <bget+0xf8>)
/root/devel/optee/optee_os/lib/libutils/isoc/bget.c:659
    1788:	3008      	adds	r0, #8
/root/devel/optee/optee_os/lib/libutils/isoc/bget.c:656
    178a:	447b      	add	r3, pc
    178c:	6819      	ldr	r1, [r3, #0]
    178e:	440a      	add	r2, r1
    1790:	601a      	str	r2, [r3, #0]
/root/devel/optee/optee_os/lib/libutils/isoc/bget.c:657
    1792:	689a      	ldr	r2, [r3, #8]
    1794:	3201      	adds	r2, #1
    1796:	609a      	str	r2, [r3, #8]
/root/devel/optee/optee_os/lib/libutils/isoc/bget.c:660
    1798:	bd38      	pop	{r3, r4, r5, pc}
/root/devel/optee/optee_os/lib/libutils/isoc/bget.c:665
    179a:	585a      	ldr	r2, [r3, r1]
/root/devel/optee/optee_os/lib/libutils/isoc/bget.c:664
    179c:	185c      	adds	r4, r3, r1
/root/devel/optee/optee_os/lib/libutils/isoc/bget.c:665
    179e:	428a      	cmp	r2, r1
    17a0:	d006      	beq.n	17b0 <bget+0x90>
/root/devel/optee/optee_os/lib/libutils/isoc/bget.c:665 (discriminator 1)
    17a2:	491e      	ldr	r1, [pc, #120]	; (181c <bget+0xfc>)
    17a4:	f240 2299 	movw	r2, #665	; 0x299
    17a8:	481d      	ldr	r0, [pc, #116]	; (1820 <bget+0x100>)
    17aa:	4479      	add	r1, pc
    17ac:	4478      	add	r0, pc
    17ae:	e7e0      	b.n	1772 <bget+0x52>
/root/devel/optee/optee_os/lib/libutils/isoc/bget.c:670
    17b0:	68d9      	ldr	r1, [r3, #12]
    17b2:	6888      	ldr	r0, [r1, #8]
    17b4:	4298      	cmp	r0, r3
    17b6:	d006      	beq.n	17c6 <bget+0xa6>
/root/devel/optee/optee_os/lib/libutils/isoc/bget.c:670 (discriminator 1)
    17b8:	491a      	ldr	r1, [pc, #104]	; (1824 <bget+0x104>)
    17ba:	f240 229e 	movw	r2, #670	; 0x29e
    17be:	481a      	ldr	r0, [pc, #104]	; (1828 <bget+0x108>)
    17c0:	4479      	add	r1, pc
    17c2:	4478      	add	r0, pc
    17c4:	e7d5      	b.n	1772 <bget+0x52>
/root/devel/optee/optee_os/lib/libutils/isoc/bget.c:671
    17c6:	6898      	ldr	r0, [r3, #8]
    17c8:	68c5      	ldr	r5, [r0, #12]
    17ca:	429d      	cmp	r5, r3
    17cc:	d006      	beq.n	17dc <bget+0xbc>
/root/devel/optee/optee_os/lib/libutils/isoc/bget.c:671 (discriminator 1)
    17ce:	4917      	ldr	r1, [pc, #92]	; (182c <bget+0x10c>)
    17d0:	f240 229f 	movw	r2, #671	; 0x29f
    17d4:	4816      	ldr	r0, [pc, #88]	; (1830 <bget+0x110>)
    17d6:	4479      	add	r1, pc
    17d8:	4478      	add	r0, pc
    17da:	e7ca      	b.n	1772 <bget+0x52>
/root/devel/optee/optee_os/lib/libutils/isoc/bget.c:672
    17dc:	6088      	str	r0, [r1, #8]
/root/devel/optee/optee_os/lib/libutils/isoc/bget.c:673
    17de:	6898      	ldr	r0, [r3, #8]
    17e0:	60c1      	str	r1, [r0, #12]
/root/devel/optee/optee_os/lib/libutils/isoc/bget.c:676
    17e2:	4914      	ldr	r1, [pc, #80]	; (1834 <bget+0x114>)
    17e4:	4479      	add	r1, pc
    17e6:	6808      	ldr	r0, [r1, #0]
    17e8:	4410      	add	r0, r2
/root/devel/optee/optee_os/lib/libutils/isoc/bget.c:680
    17ea:	4252      	negs	r2, r2
/root/devel/optee/optee_os/lib/libutils/isoc/bget.c:676
    17ec:	6008      	str	r0, [r1, #0]
/root/devel/optee/optee_os/lib/libutils/isoc/bget.c:677
    17ee:	6888      	ldr	r0, [r1, #8]
/root/devel/optee/optee_os/lib/libutils/isoc/bget.c:680
    17f0:	605a      	str	r2, [r3, #4]
/root/devel/optee/optee_os/lib/libutils/isoc/bget.c:684
    17f2:	2200      	movs	r2, #0
    17f4:	6022      	str	r2, [r4, #0]
/root/devel/optee/optee_os/lib/libutils/isoc/bget.c:677
    17f6:	3001      	adds	r0, #1
    17f8:	6088      	str	r0, [r1, #8]
/root/devel/optee/optee_os/lib/libutils/isoc/bget.c:687
    17fa:	f103 0008 	add.w	r0, r3, #8
/root/devel/optee/optee_os/lib/libutils/isoc/bget.c:688
    17fe:	bd38      	pop	{r3, r4, r5, pc}
/root/devel/optee/optee_os/lib/libutils/isoc/bget.c:752
    1800:	2000      	movs	r0, #0
/root/devel/optee/optee_os/lib/libutils/isoc/bget.c:753
    1802:	bd38      	pop	{r3, r4, r5, pc}
    1804:	00004d2e 	.word	0x00004d2e
    1808:	00004f1a 	.word	0x00004f1a
    180c:	0000593a 	.word	0x0000593a
    1810:	00004cee 	.word	0x00004cee
    1814:	00004d05 	.word	0x00004d05
    1818:	0000743e 	.word	0x0000743e
    181c:	00004cb2 	.word	0x00004cb2
    1820:	00004ce5 	.word	0x00004ce5
    1824:	00004c9c 	.word	0x00004c9c
    1828:	00004ceb 	.word	0x00004ceb
    182c:	00004c86 	.word	0x00004c86
    1830:	00004cf0 	.word	0x00004cf0
    1834:	000073e4 	.word	0x000073e4

00001838 <bgetz>:
bgetz():
/root/devel/optee/optee_os/lib/libutils/isoc/bget.c:761
    1838:	b538      	push	{r3, r4, r5, lr}
    183a:	4605      	mov	r5, r0
/root/devel/optee/optee_os/lib/libutils/isoc/bget.c:762
    183c:	f7ff ff70 	bl	1720 <bget>
/root/devel/optee/optee_os/lib/libutils/isoc/bget.c:764
    1840:	4604      	mov	r4, r0
    1842:	b1c0      	cbz	r0, 1876 <bgetz+0x3e>
/root/devel/optee/optee_os/lib/libutils/isoc/bget.c:769
    1844:	f850 2c04 	ldr.w	r2, [r0, #-4]
    1848:	4252      	negs	r2, r2
/root/devel/optee/optee_os/lib/libutils/isoc/bget.c:770
    184a:	b91a      	cbnz	r2, 1854 <bgetz+0x1c>
/root/devel/optee/optee_os/lib/libutils/isoc/bget.c:774
    184c:	f850 2c0c 	ldr.w	r2, [r0, #-12]
    1850:	3a0c      	subs	r2, #12
    1852:	e000      	b.n	1856 <bgetz+0x1e>
/root/devel/optee/optee_os/lib/libutils/isoc/bget.c:776
    1854:	3a08      	subs	r2, #8
/root/devel/optee/optee_os/lib/libutils/isoc/bget.c:778
    1856:	42aa      	cmp	r2, r5
    1858:	da09      	bge.n	186e <bgetz+0x36>
    185a:	4908      	ldr	r1, [pc, #32]	; (187c <bgetz+0x44>)
    185c:	f240 320a 	movw	r2, #778	; 0x30a
    1860:	4807      	ldr	r0, [pc, #28]	; (1880 <bgetz+0x48>)
    1862:	4479      	add	r1, pc
    1864:	4478      	add	r0, pc
    1866:	f7ff fedd 	bl	1624 <_assert_log>
    186a:	f7ff fef1 	bl	1650 <_assert_break>
/root/devel/optee/optee_os/lib/libutils/isoc/bget.c:779
    186e:	2100      	movs	r1, #0
    1870:	4620      	mov	r0, r4
    1872:	f001 ff36 	bl	36e2 <memset>
/root/devel/optee/optee_os/lib/libutils/isoc/bget.c:782
    1876:	4620      	mov	r0, r4
    1878:	bd38      	pop	{r3, r4, r5, pc}
    187a:	bf00      	nop
    187c:	00004bfa 	.word	0x00004bfa
    1880:	00004c7f 	.word	0x00004c7f

00001884 <brel>:
brel():
/root/devel/optee/optee_os/lib/libutils/isoc/bget.c:826
    1884:	b5f8      	push	{r3, r4, r5, r6, r7, lr}
/root/devel/optee/optee_os/lib/libutils/isoc/bget.c:829
    1886:	f1a0 0308 	sub.w	r3, r0, #8
/root/devel/optee/optee_os/lib/libutils/isoc/bget.c:831
    188a:	4c4d      	ldr	r4, [pc, #308]	; (19c0 <brel+0x13c>)
    188c:	447c      	add	r4, pc
    188e:	68e2      	ldr	r2, [r4, #12]
    1890:	3201      	adds	r2, #1
    1892:	60e2      	str	r2, [r4, #12]
/root/devel/optee/optee_os/lib/libutils/isoc/bget.c:833
    1894:	b930      	cbnz	r0, 18a4 <brel+0x20>
/root/devel/optee/optee_os/lib/libutils/isoc/bget.c:833 (discriminator 1)
    1896:	494b      	ldr	r1, [pc, #300]	; (19c4 <brel+0x140>)
    1898:	f240 3241 	movw	r2, #833	; 0x341
    189c:	484a      	ldr	r0, [pc, #296]	; (19c8 <brel+0x144>)
    189e:	4479      	add	r1, pc
    18a0:	4478      	add	r0, pc
    18a2:	e009      	b.n	18b8 <brel+0x34>
/root/devel/optee/optee_os/lib/libutils/isoc/bget.c:862
    18a4:	f850 2c04 	ldr.w	r2, [r0, #-4]
    18a8:	2a00      	cmp	r2, #0
    18aa:	db09      	blt.n	18c0 <brel+0x3c>
/root/devel/optee/optee_os/lib/libutils/isoc/bget.c:862 (discriminator 1)
    18ac:	4947      	ldr	r1, [pc, #284]	; (19cc <brel+0x148>)
    18ae:	f240 325e 	movw	r2, #862	; 0x35e
    18b2:	4847      	ldr	r0, [pc, #284]	; (19d0 <brel+0x14c>)
    18b4:	4479      	add	r1, pc
    18b6:	4478      	add	r0, pc
    18b8:	f7ff feb4 	bl	1624 <_assert_log>
    18bc:	f7ff fec8 	bl	1650 <_assert_break>
/root/devel/optee/optee_os/lib/libutils/isoc/bget.c:867
    18c0:	1a99      	subs	r1, r3, r2
    18c2:	6809      	ldr	r1, [r1, #0]
    18c4:	b131      	cbz	r1, 18d4 <brel+0x50>
/root/devel/optee/optee_os/lib/libutils/isoc/bget.c:867 (discriminator 1)
    18c6:	4943      	ldr	r1, [pc, #268]	; (19d4 <brel+0x150>)
    18c8:	f240 3263 	movw	r2, #867	; 0x363
    18cc:	4842      	ldr	r0, [pc, #264]	; (19d8 <brel+0x154>)
    18ce:	4479      	add	r1, pc
    18d0:	4478      	add	r0, pc
    18d2:	e7f1      	b.n	18b8 <brel+0x34>
/root/devel/optee/optee_os/lib/libutils/isoc/bget.c:870
    18d4:	6821      	ldr	r1, [r4, #0]
    18d6:	4411      	add	r1, r2
/root/devel/optee/optee_os/lib/libutils/isoc/bget.c:871
    18d8:	2900      	cmp	r1, #0
/root/devel/optee/optee_os/lib/libutils/isoc/bget.c:870
    18da:	6021      	str	r1, [r4, #0]
/root/devel/optee/optee_os/lib/libutils/isoc/bget.c:871
    18dc:	da06      	bge.n	18ec <brel+0x68>
/root/devel/optee/optee_os/lib/libutils/isoc/bget.c:871 (discriminator 1)
    18de:	493f      	ldr	r1, [pc, #252]	; (19dc <brel+0x158>)
    18e0:	f240 3267 	movw	r2, #871	; 0x367
    18e4:	483e      	ldr	r0, [pc, #248]	; (19e0 <brel+0x15c>)
    18e6:	4479      	add	r1, pc
    18e8:	4478      	add	r0, pc
    18ea:	e7e5      	b.n	18b8 <brel+0x34>
/root/devel/optee/optee_os/lib/libutils/isoc/bget.c:876
    18ec:	f850 4c08 	ldr.w	r4, [r0, #-8]
    18f0:	b16c      	cbz	r4, 190e <brel+0x8a>
/root/devel/optee/optee_os/lib/libutils/isoc/bget.c:887
    18f2:	1b1b      	subs	r3, r3, r4
    18f4:	6859      	ldr	r1, [r3, #4]
    18f6:	42a1      	cmp	r1, r4
    18f8:	d006      	beq.n	1908 <brel+0x84>
/root/devel/optee/optee_os/lib/libutils/isoc/bget.c:887 (discriminator 1)
    18fa:	493a      	ldr	r1, [pc, #232]	; (19e4 <brel+0x160>)
    18fc:	f240 3277 	movw	r2, #887	; 0x377
    1900:	4839      	ldr	r0, [pc, #228]	; (19e8 <brel+0x164>)
    1902:	4479      	add	r1, pc
    1904:	4478      	add	r0, pc
    1906:	e7d7      	b.n	18b8 <brel+0x34>
/root/devel/optee/optee_os/lib/libutils/isoc/bget.c:889
    1908:	1a8a      	subs	r2, r1, r2
    190a:	605a      	str	r2, [r3, #4]
    190c:	e01f      	b.n	194e <brel+0xca>
/root/devel/optee/optee_os/lib/libutils/isoc/bget.c:895
    190e:	4937      	ldr	r1, [pc, #220]	; (19ec <brel+0x168>)
    1910:	4479      	add	r1, pc
    1912:	68cd      	ldr	r5, [r1, #12]
    1914:	68ac      	ldr	r4, [r5, #8]
    1916:	428c      	cmp	r4, r1
    1918:	d006      	beq.n	1928 <brel+0xa4>
/root/devel/optee/optee_os/lib/libutils/isoc/bget.c:895 (discriminator 1)
    191a:	4935      	ldr	r1, [pc, #212]	; (19f0 <brel+0x16c>)
    191c:	f240 327f 	movw	r2, #895	; 0x37f
    1920:	4834      	ldr	r0, [pc, #208]	; (19f4 <brel+0x170>)
    1922:	4479      	add	r1, pc
    1924:	4478      	add	r0, pc
    1926:	e7c7      	b.n	18b8 <brel+0x34>
/root/devel/optee/optee_os/lib/libutils/isoc/bget.c:896
    1928:	68a1      	ldr	r1, [r4, #8]
    192a:	68c9      	ldr	r1, [r1, #12]
    192c:	42a1      	cmp	r1, r4
    192e:	d006      	beq.n	193e <brel+0xba>
/root/devel/optee/optee_os/lib/libutils/isoc/bget.c:896 (discriminator 1)
    1930:	4931      	ldr	r1, [pc, #196]	; (19f8 <brel+0x174>)
    1932:	f44f 7260 	mov.w	r2, #896	; 0x380
    1936:	4831      	ldr	r0, [pc, #196]	; (19fc <brel+0x178>)
    1938:	4479      	add	r1, pc
    193a:	4478      	add	r0, pc
    193c:	e7bc      	b.n	18b8 <brel+0x34>
/root/devel/optee/optee_os/lib/libutils/isoc/bget.c:898
    193e:	e9c0 1500 	strd	r1, r5, [r0]
/root/devel/optee/optee_os/lib/libutils/isoc/bget.c:901
    1942:	4252      	negs	r2, r2
/root/devel/optee/optee_os/lib/libutils/isoc/bget.c:899
    1944:	60cb      	str	r3, [r1, #12]
/root/devel/optee/optee_os/lib/libutils/isoc/bget.c:900
    1946:	6841      	ldr	r1, [r0, #4]
    1948:	608b      	str	r3, [r1, #8]
/root/devel/optee/optee_os/lib/libutils/isoc/bget.c:901
    194a:	f840 2c04 	str.w	r2, [r0, #-4]
/root/devel/optee/optee_os/lib/libutils/isoc/bget.c:909
    194e:	685d      	ldr	r5, [r3, #4]
    1950:	195a      	adds	r2, r3, r5
/root/devel/optee/optee_os/lib/libutils/isoc/bget.c:910
    1952:	6850      	ldr	r0, [r2, #4]
    1954:	2800      	cmp	r0, #0
    1956:	dd25      	ble.n	19a4 <brel+0x120>
/root/devel/optee/optee_os/lib/libutils/isoc/bget.c:915
    1958:	5811      	ldr	r1, [r2, r0]
    195a:	4281      	cmp	r1, r0
    195c:	d006      	beq.n	196c <brel+0xe8>
/root/devel/optee/optee_os/lib/libutils/isoc/bget.c:915 (discriminator 1)
    195e:	4928      	ldr	r1, [pc, #160]	; (1a00 <brel+0x17c>)
    1960:	f240 3293 	movw	r2, #915	; 0x393
    1964:	4827      	ldr	r0, [pc, #156]	; (1a04 <brel+0x180>)
    1966:	4479      	add	r1, pc
    1968:	4478      	add	r0, pc
    196a:	e7a5      	b.n	18b8 <brel+0x34>
/root/devel/optee/optee_os/lib/libutils/isoc/bget.c:916
    196c:	68d0      	ldr	r0, [r2, #12]
    196e:	6884      	ldr	r4, [r0, #8]
    1970:	4294      	cmp	r4, r2
    1972:	d006      	beq.n	1982 <brel+0xfe>
/root/devel/optee/optee_os/lib/libutils/isoc/bget.c:916 (discriminator 1)
    1974:	4924      	ldr	r1, [pc, #144]	; (1a08 <brel+0x184>)
    1976:	f44f 7265 	mov.w	r2, #916	; 0x394
    197a:	4824      	ldr	r0, [pc, #144]	; (1a0c <brel+0x188>)
    197c:	4479      	add	r1, pc
    197e:	4478      	add	r0, pc
    1980:	e79a      	b.n	18b8 <brel+0x34>
/root/devel/optee/optee_os/lib/libutils/isoc/bget.c:917
    1982:	68a6      	ldr	r6, [r4, #8]
    1984:	68f7      	ldr	r7, [r6, #12]
    1986:	42a7      	cmp	r7, r4
    1988:	d006      	beq.n	1998 <brel+0x114>
/root/devel/optee/optee_os/lib/libutils/isoc/bget.c:917 (discriminator 1)
    198a:	4921      	ldr	r1, [pc, #132]	; (1a10 <brel+0x18c>)
    198c:	f240 3295 	movw	r2, #917	; 0x395
    1990:	4820      	ldr	r0, [pc, #128]	; (1a14 <brel+0x190>)
    1992:	4479      	add	r1, pc
    1994:	4478      	add	r0, pc
    1996:	e78f      	b.n	18b8 <brel+0x34>
/root/devel/optee/optee_os/lib/libutils/isoc/bget.c:918
    1998:	6086      	str	r6, [r0, #8]
/root/devel/optee/optee_os/lib/libutils/isoc/bget.c:919
    199a:	6892      	ldr	r2, [r2, #8]
    199c:	60d0      	str	r0, [r2, #12]
/root/devel/optee/optee_os/lib/libutils/isoc/bget.c:920
    199e:	186a      	adds	r2, r5, r1
    19a0:	605a      	str	r2, [r3, #4]
/root/devel/optee/optee_os/lib/libutils/isoc/bget.c:929
    19a2:	441a      	add	r2, r3
/root/devel/optee/optee_os/lib/libutils/isoc/bget.c:935
    19a4:	6851      	ldr	r1, [r2, #4]
    19a6:	2900      	cmp	r1, #0
    19a8:	db06      	blt.n	19b8 <brel+0x134>
/root/devel/optee/optee_os/lib/libutils/isoc/bget.c:935 (discriminator 1)
    19aa:	491b      	ldr	r1, [pc, #108]	; (1a18 <brel+0x194>)
    19ac:	f240 32a7 	movw	r2, #935	; 0x3a7
    19b0:	481a      	ldr	r0, [pc, #104]	; (1a1c <brel+0x198>)
    19b2:	4479      	add	r1, pc
    19b4:	4478      	add	r0, pc
    19b6:	e77f      	b.n	18b8 <brel+0x34>
/root/devel/optee/optee_os/lib/libutils/isoc/bget.c:940
    19b8:	685b      	ldr	r3, [r3, #4]
    19ba:	6013      	str	r3, [r2, #0]
    19bc:	bdf8      	pop	{r3, r4, r5, r6, r7, pc}
    19be:	bf00      	nop
    19c0:	0000733c 	.word	0x0000733c
    19c4:	00004bbe 	.word	0x00004bbe
    19c8:	00004c51 	.word	0x00004c51
    19cc:	00004ba8 	.word	0x00004ba8
    19d0:	00004c47 	.word	0x00004c47
    19d4:	00004b8e 	.word	0x00004b8e
    19d8:	00004c3d 	.word	0x00004c3d
    19dc:	00004b76 	.word	0x00004b76
    19e0:	00004c51 	.word	0x00004c51
    19e4:	00004b5a 	.word	0x00004b5a
    19e8:	00004c43 	.word	0x00004c43
    19ec:	0000576c 	.word	0x0000576c
    19f0:	00004b3a 	.word	0x00004b3a
    19f4:	00004ae6 	.word	0x00004ae6
    19f8:	00004b24 	.word	0x00004b24
    19fc:	00004af9 	.word	0x00004af9
    1a00:	00004af6 	.word	0x00004af6
    1a04:	00004c18 	.word	0x00004c18
    1a08:	00004ae0 	.word	0x00004ae0
    1a0c:	00004c3b 	.word	0x00004c3b
    1a10:	00004aca 	.word	0x00004aca
    1a14:	00004c42 	.word	0x00004c42
    1a18:	00004aaa 	.word	0x00004aaa
    1a1c:	00004c3f 	.word	0x00004c3f

00001a20 <bgetr>:
bgetr():
/root/devel/optee/optee_os/lib/libutils/isoc/bget.c:792
    1a20:	b570      	push	{r4, r5, r6, lr}
    1a22:	4604      	mov	r4, r0
/root/devel/optee/optee_os/lib/libutils/isoc/bget.c:797
    1a24:	4608      	mov	r0, r1
/root/devel/optee/optee_os/lib/libutils/isoc/bget.c:792
    1a26:	460d      	mov	r5, r1
/root/devel/optee/optee_os/lib/libutils/isoc/bget.c:797
    1a28:	f7ff fe7a 	bl	1720 <bget>
    1a2c:	4606      	mov	r6, r0
    1a2e:	b1d0      	cbz	r0, 1a66 <bgetr+0x46>
/root/devel/optee/optee_os/lib/libutils/isoc/bget.c:800
    1a30:	b1cc      	cbz	r4, 1a66 <bgetr+0x46>
/root/devel/optee/optee_os/lib/libutils/isoc/bget.c:804
    1a32:	f854 3c04 	ldr.w	r3, [r4, #-4]
    1a36:	425b      	negs	r3, r3
/root/devel/optee/optee_os/lib/libutils/isoc/bget.c:814
    1a38:	f1a3 0208 	sub.w	r2, r3, #8
/root/devel/optee/optee_os/lib/libutils/isoc/bget.c:815
    1a3c:	2a00      	cmp	r2, #0
    1a3e:	dc09      	bgt.n	1a54 <bgetr+0x34>
    1a40:	490a      	ldr	r1, [pc, #40]	; (1a6c <bgetr+0x4c>)
    1a42:	f240 322f 	movw	r2, #815	; 0x32f
    1a46:	480a      	ldr	r0, [pc, #40]	; (1a70 <bgetr+0x50>)
    1a48:	4479      	add	r1, pc
    1a4a:	4478      	add	r0, pc
    1a4c:	f7ff fdea 	bl	1624 <_assert_log>
    1a50:	f7ff fdfe 	bl	1650 <_assert_break>
/root/devel/optee/optee_os/lib/libutils/isoc/bget.c:816
    1a54:	42aa      	cmp	r2, r5
    1a56:	4621      	mov	r1, r4
    1a58:	bfa8      	it	ge
    1a5a:	462a      	movge	r2, r5
    1a5c:	f001 fe1b 	bl	3696 <memcpy>
/root/devel/optee/optee_os/lib/libutils/isoc/bget.c:818
    1a60:	4620      	mov	r0, r4
    1a62:	f7ff ff0f 	bl	1884 <brel>
/root/devel/optee/optee_os/lib/libutils/isoc/bget.c:820
    1a66:	4630      	mov	r0, r6
    1a68:	bd70      	pop	{r4, r5, r6, pc}
    1a6a:	bf00      	nop
    1a6c:	00004a14 	.word	0x00004a14
    1a70:	00004bba 	.word	0x00004bba

00001a74 <bpool>:
bpool():
/root/devel/optee/optee_os/lib/libutils/isoc/bget.c:996
    1a74:	f021 0107 	bic.w	r1, r1, #7
/root/devel/optee/optee_os/lib/libutils/isoc/bget.c:991
    1a78:	b510      	push	{r4, lr}
/root/devel/optee/optee_os/lib/libutils/isoc/bget.c:1015
    1a7a:	3908      	subs	r1, #8
    1a7c:	d506      	bpl.n	1a8c <bpool+0x18>
    1a7e:	4918      	ldr	r1, [pc, #96]	; (1ae0 <bpool+0x6c>)
    1a80:	f240 32f7 	movw	r2, #1015	; 0x3f7
    1a84:	4817      	ldr	r0, [pc, #92]	; (1ae4 <bpool+0x70>)
    1a86:	4479      	add	r1, pc
    1a88:	4478      	add	r0, pc
    1a8a:	e00d      	b.n	1aa8 <bpool+0x34>
/root/devel/optee/optee_os/lib/libutils/isoc/bget.c:1021
    1a8c:	2300      	movs	r3, #0
    1a8e:	6003      	str	r3, [r0, #0]
/root/devel/optee/optee_os/lib/libutils/isoc/bget.c:1025
    1a90:	4b15      	ldr	r3, [pc, #84]	; (1ae8 <bpool+0x74>)
    1a92:	447b      	add	r3, pc
    1a94:	68dc      	ldr	r4, [r3, #12]
    1a96:	68a2      	ldr	r2, [r4, #8]
    1a98:	429a      	cmp	r2, r3
    1a9a:	d009      	beq.n	1ab0 <bpool+0x3c>
/root/devel/optee/optee_os/lib/libutils/isoc/bget.c:1025 (discriminator 1)
    1a9c:	4913      	ldr	r1, [pc, #76]	; (1aec <bpool+0x78>)
    1a9e:	f240 4201 	movw	r2, #1025	; 0x401
    1aa2:	4813      	ldr	r0, [pc, #76]	; (1af0 <bpool+0x7c>)
    1aa4:	4479      	add	r1, pc
    1aa6:	4478      	add	r0, pc
    1aa8:	f7ff fdbc 	bl	1624 <_assert_log>
    1aac:	f7ff fdd0 	bl	1650 <_assert_break>
/root/devel/optee/optee_os/lib/libutils/isoc/bget.c:1026
    1ab0:	6893      	ldr	r3, [r2, #8]
    1ab2:	68db      	ldr	r3, [r3, #12]
    1ab4:	4293      	cmp	r3, r2
    1ab6:	d006      	beq.n	1ac6 <bpool+0x52>
/root/devel/optee/optee_os/lib/libutils/isoc/bget.c:1026 (discriminator 1)
    1ab8:	490e      	ldr	r1, [pc, #56]	; (1af4 <bpool+0x80>)
    1aba:	f240 4202 	movw	r2, #1026	; 0x402
    1abe:	480e      	ldr	r0, [pc, #56]	; (1af8 <bpool+0x84>)
    1ac0:	4479      	add	r1, pc
    1ac2:	4478      	add	r0, pc
    1ac4:	e7f0      	b.n	1aa8 <bpool+0x34>
/root/devel/optee/optee_os/lib/libutils/isoc/bget.c:1027
    1ac6:	6083      	str	r3, [r0, #8]
/root/devel/optee/optee_os/lib/libutils/isoc/bget.c:1050
    1ac8:	f04f 4200 	mov.w	r2, #2147483648	; 0x80000000
/root/devel/optee/optee_os/lib/libutils/isoc/bget.c:1028
    1acc:	60c4      	str	r4, [r0, #12]
/root/devel/optee/optee_os/lib/libutils/isoc/bget.c:1029
    1ace:	60d8      	str	r0, [r3, #12]
/root/devel/optee/optee_os/lib/libutils/isoc/bget.c:1030
    1ad0:	68c3      	ldr	r3, [r0, #12]
    1ad2:	6098      	str	r0, [r3, #8]
/root/devel/optee/optee_os/lib/libutils/isoc/bget.c:1046
    1ad4:	1843      	adds	r3, r0, r1
/root/devel/optee/optee_os/lib/libutils/isoc/bget.c:1041
    1ad6:	6041      	str	r1, [r0, #4]
/root/devel/optee/optee_os/lib/libutils/isoc/bget.c:1047
    1ad8:	5041      	str	r1, [r0, r1]
/root/devel/optee/optee_os/lib/libutils/isoc/bget.c:1050
    1ada:	605a      	str	r2, [r3, #4]
    1adc:	bd10      	pop	{r4, pc}
    1ade:	bf00      	nop
    1ae0:	000049d6 	.word	0x000049d6
    1ae4:	00004b86 	.word	0x00004b86
    1ae8:	000055ea 	.word	0x000055ea
    1aec:	000049b8 	.word	0x000049b8
    1af0:	00004964 	.word	0x00004964
    1af4:	0000499c 	.word	0x0000499c
    1af8:	00004971 	.word	0x00004971

00001afc <bstats>:
bstats():
/root/devel/optee/optee_os/lib/libutils/isoc/bget.c:1060
    1afc:	b5f8      	push	{r3, r4, r5, r6, r7, lr}
/root/devel/optee/optee_os/lib/libutils/isoc/bget.c:1063
    1afe:	4e15      	ldr	r6, [pc, #84]	; (1b54 <bstats+0x58>)
/root/devel/optee/optee_os/lib/libutils/isoc/bget.c:1061
    1b00:	4d15      	ldr	r5, [pc, #84]	; (1b58 <bstats+0x5c>)
/root/devel/optee/optee_os/lib/libutils/isoc/bget.c:1063
    1b02:	447e      	add	r6, pc
    1b04:	68b7      	ldr	r7, [r6, #8]
/root/devel/optee/optee_os/lib/libutils/isoc/bget.c:1061
    1b06:	447d      	add	r5, pc
    1b08:	68ac      	ldr	r4, [r5, #8]
/root/devel/optee/optee_os/lib/libutils/isoc/bget.c:1063
    1b0a:	601f      	str	r7, [r3, #0]
/root/devel/optee/optee_os/lib/libutils/isoc/bget.c:1064
    1b0c:	9b06      	ldr	r3, [sp, #24]
    1b0e:	68f7      	ldr	r7, [r6, #12]
    1b10:	601f      	str	r7, [r3, #0]
/root/devel/optee/optee_os/lib/libutils/isoc/bget.c:1065
    1b12:	6833      	ldr	r3, [r6, #0]
    1b14:	6003      	str	r3, [r0, #0]
/root/devel/optee/optee_os/lib/libutils/isoc/bget.c:1066
    1b16:	2300      	movs	r3, #0
    1b18:	600b      	str	r3, [r1, #0]
/root/devel/optee/optee_os/lib/libutils/isoc/bget.c:1067
    1b1a:	f04f 33ff 	mov.w	r3, #4294967295
    1b1e:	6013      	str	r3, [r2, #0]
/root/devel/optee/optee_os/lib/libutils/isoc/bget.c:1068
    1b20:	42ac      	cmp	r4, r5
    1b22:	d016      	beq.n	1b52 <bstats+0x56>
/root/devel/optee/optee_os/lib/libutils/isoc/bget.c:1069
    1b24:	6863      	ldr	r3, [r4, #4]
    1b26:	2b00      	cmp	r3, #0
    1b28:	dc09      	bgt.n	1b3e <bstats+0x42>
/root/devel/optee/optee_os/lib/libutils/isoc/bget.c:1069 (discriminator 1)
    1b2a:	490c      	ldr	r1, [pc, #48]	; (1b5c <bstats+0x60>)
    1b2c:	f240 422d 	movw	r2, #1069	; 0x42d
    1b30:	480b      	ldr	r0, [pc, #44]	; (1b60 <bstats+0x64>)
    1b32:	4479      	add	r1, pc
    1b34:	4478      	add	r0, pc
    1b36:	f7ff fd75 	bl	1624 <_assert_log>
    1b3a:	f7ff fd89 	bl	1650 <_assert_break>
/root/devel/optee/optee_os/lib/libutils/isoc/bget.c:1070
    1b3e:	6808      	ldr	r0, [r1, #0]
    1b40:	4403      	add	r3, r0
    1b42:	600b      	str	r3, [r1, #0]
/root/devel/optee/optee_os/lib/libutils/isoc/bget.c:1071
    1b44:	6863      	ldr	r3, [r4, #4]
    1b46:	6810      	ldr	r0, [r2, #0]
/root/devel/optee/optee_os/lib/libutils/isoc/bget.c:1074
    1b48:	68a4      	ldr	r4, [r4, #8]
/root/devel/optee/optee_os/lib/libutils/isoc/bget.c:1071
    1b4a:	4283      	cmp	r3, r0
/root/devel/optee/optee_os/lib/libutils/isoc/bget.c:1072
    1b4c:	bfc8      	it	gt
    1b4e:	6013      	strgt	r3, [r2, #0]
    1b50:	e7e6      	b.n	1b20 <bstats+0x24>
/root/devel/optee/optee_os/lib/libutils/isoc/bget.c:1076
    1b52:	bdf8      	pop	{r3, r4, r5, r6, r7, pc}
    1b54:	000070c6 	.word	0x000070c6
    1b58:	00005576 	.word	0x00005576
    1b5c:	0000492a 	.word	0x0000492a
    1b60:	00004b0f 	.word	0x00004b0f

00001b64 <malloc_reset_max_allocated>:
malloc_reset_max_allocated():
/root/devel/optee/optee_os/lib/libutils/isoc/bget_malloc.c:160
    1b64:	4b02      	ldr	r3, [pc, #8]	; (1b70 <malloc_reset_max_allocated+0xc>)
    1b66:	2200      	movs	r2, #0
    1b68:	447b      	add	r3, pc
    1b6a:	605a      	str	r2, [r3, #4]
    1b6c:	4770      	bx	lr
    1b6e:	bf00      	nop
    1b70:	00007060 	.word	0x00007060

00001b74 <malloc_get_max_allocated>:
malloc_get_max_allocated():
/root/devel/optee/optee_os/lib/libutils/isoc/bget_malloc.c:172
    1b74:	4b01      	ldr	r3, [pc, #4]	; (1b7c <malloc_get_max_allocated+0x8>)
    1b76:	447b      	add	r3, pc
    1b78:	6858      	ldr	r0, [r3, #4]
    1b7a:	4770      	bx	lr
    1b7c:	00007052 	.word	0x00007052

00001b80 <malloc_get_allocated>:
malloc_get_allocated():
/root/devel/optee/optee_os/lib/libutils/isoc/bget_malloc.c:182
    1b80:	4b01      	ldr	r3, [pc, #4]	; (1b88 <malloc_get_allocated+0x8>)
    1b82:	447b      	add	r3, pc
    1b84:	6818      	ldr	r0, [r3, #0]
    1b86:	4770      	bx	lr
    1b88:	00007046 	.word	0x00007046

00001b8c <malloc_get_heap_size>:
malloc_get_heap_size():
/root/devel/optee/optee_os/lib/libutils/isoc/bget_malloc.c:212
    1b8c:	4b07      	ldr	r3, [pc, #28]	; (1bac <malloc_get_heap_size+0x20>)
/root/devel/optee/optee_os/lib/libutils/isoc/bget_malloc.c:208
    1b8e:	2000      	movs	r0, #0
/root/devel/optee/optee_os/lib/libutils/isoc/bget_malloc.c:206
    1b90:	b510      	push	{r4, lr}
/root/devel/optee/optee_os/lib/libutils/isoc/bget_malloc.c:212
    1b92:	447b      	add	r3, pc
    1b94:	691a      	ldr	r2, [r3, #16]
/root/devel/optee/optee_os/lib/libutils/isoc/bget_malloc.c:213
    1b96:	6959      	ldr	r1, [r3, #20]
/root/devel/optee/optee_os/lib/libutils/isoc/bget_malloc.c:212
    1b98:	4603      	mov	r3, r0
/root/devel/optee/optee_os/lib/libutils/isoc/bget_malloc.c:212 (discriminator 1)
    1b9a:	4293      	cmp	r3, r2
    1b9c:	d005      	beq.n	1baa <malloc_get_heap_size+0x1e>
    1b9e:	eb01 04c3 	add.w	r4, r1, r3, lsl #3
/root/devel/optee/optee_os/lib/libutils/isoc/bget_malloc.c:212 (discriminator 3)
    1ba2:	3301      	adds	r3, #1
/root/devel/optee/optee_os/lib/libutils/isoc/bget_malloc.c:213 (discriminator 3)
    1ba4:	6864      	ldr	r4, [r4, #4]
    1ba6:	4420      	add	r0, r4
    1ba8:	e7f7      	b.n	1b9a <malloc_get_heap_size+0xe>
/root/devel/optee/optee_os/lib/libutils/isoc/bget_malloc.c:218
    1baa:	bd10      	pop	{r4, pc}
    1bac:	00007036 	.word	0x00007036

00001bb0 <malloc>:
malloc():
/root/devel/optee/optee_os/lib/libutils/isoc/bget_malloc.c:815
    1bb0:	b510      	push	{r4, lr}
raw_malloc():
/root/devel/optee/optee_os/lib/libutils/isoc/bget_malloc.c:322
    1bb2:	2800      	cmp	r0, #0
    1bb4:	bf08      	it	eq
    1bb6:	2001      	moveq	r0, #1
    1bb8:	f7ff fdb2 	bl	1720 <bget>
    1bbc:	4604      	mov	r4, r0
/root/devel/optee/optee_os/lib/libutils/isoc/bget_malloc.c:323
    1bbe:	f7ff fd4d 	bl	165c <raw_malloc_save_max_alloced_size>
malloc():
/root/devel/optee/optee_os/lib/libutils/isoc/bget_malloc.c:822
    1bc2:	4620      	mov	r0, r4
    1bc4:	bd10      	pop	{r4, pc}

00001bc6 <free>:
raw_free():
/root/devel/optee/optee_os/lib/libutils/isoc/bget_malloc.c:332
    1bc6:	b108      	cbz	r0, 1bcc <free+0x6>
/root/devel/optee/optee_os/lib/libutils/isoc/bget_malloc.c:333
    1bc8:	f7ff be5c 	b.w	1884 <brel>
    1bcc:	4770      	bx	lr

00001bce <calloc>:
raw_calloc():
/root/devel/optee/optee_os/lib/libutils/isoc/bget_malloc.c:339
    1bce:	fb01 f300 	mul.w	r3, r1, r0
calloc():
/root/devel/optee/optee_os/lib/libutils/isoc/bget_malloc.c:832
    1bd2:	b510      	push	{r4, lr}
raw_calloc():
/root/devel/optee/optee_os/lib/libutils/isoc/bget_malloc.c:345
    1bd4:	4283      	cmp	r3, r0
    1bd6:	d30c      	bcc.n	1bf2 <calloc+0x24>
    1bd8:	428b      	cmp	r3, r1
    1bda:	d30a      	bcc.n	1bf2 <calloc+0x24>
/root/devel/optee/optee_os/lib/libutils/isoc/bget_malloc.c:349
    1bdc:	2b00      	cmp	r3, #0
/root/devel/optee/optee_os/lib/libutils/isoc/bget_malloc.c:352
    1bde:	bf14      	ite	ne
    1be0:	4618      	movne	r0, r3
    1be2:	2001      	moveq	r0, #1
    1be4:	f7ff fe28 	bl	1838 <bgetz>
    1be8:	4604      	mov	r4, r0
/root/devel/optee/optee_os/lib/libutils/isoc/bget_malloc.c:353
    1bea:	f7ff fd37 	bl	165c <raw_malloc_save_max_alloced_size>
/root/devel/optee/optee_os/lib/libutils/isoc/bget_malloc.c:355
    1bee:	4620      	mov	r0, r4
    1bf0:	bd10      	pop	{r4, pc}
/root/devel/optee/optee_os/lib/libutils/isoc/bget_malloc.c:346
    1bf2:	2000      	movs	r0, #0
calloc():
/root/devel/optee/optee_os/lib/libutils/isoc/bget_malloc.c:839
    1bf4:	bd10      	pop	{r4, pc}

00001bf6 <realloc>:
realloc():
/root/devel/optee/optee_os/lib/libutils/isoc/bget_malloc.c:847
    1bf6:	b510      	push	{r4, lr}
raw_realloc():
/root/devel/optee/optee_os/lib/libutils/isoc/bget_malloc.c:374
    1bf8:	2900      	cmp	r1, #0
    1bfa:	bf08      	it	eq
    1bfc:	2101      	moveq	r1, #1
    1bfe:	f7ff ff0f 	bl	1a20 <bgetr>
    1c02:	4604      	mov	r4, r0
/root/devel/optee/optee_os/lib/libutils/isoc/bget_malloc.c:375
    1c04:	f7ff fd2a 	bl	165c <raw_malloc_save_max_alloced_size>
realloc():
/root/devel/optee/optee_os/lib/libutils/isoc/bget_malloc.c:854
    1c08:	4620      	mov	r0, r4
    1c0a:	bd10      	pop	{r4, pc}

00001c0c <memalign>:
memalign():
/root/devel/optee/optee_os/lib/libutils/isoc/bget_malloc.c:857
    1c0c:	e92d 41f0 	stmdb	sp!, {r4, r5, r6, r7, r8, lr}
    1c10:	460c      	mov	r4, r1
raw_memalign():
/root/devel/optee/optee_os/lib/libutils/isoc/bget_malloc.c:534
    1c12:	b910      	cbnz	r0, 1c1a <memalign+0xe>
/root/devel/optee/optee_os/lib/libutils/isoc/bget_malloc.c:535
    1c14:	2000      	movs	r0, #0
    1c16:	e8bd 81f0 	ldmia.w	sp!, {r4, r5, r6, r7, r8, pc}
/root/devel/optee/optee_os/lib/libutils/isoc/bget_malloc.c:534
    1c1a:	f1c0 0800 	rsb	r8, r0, #0
    1c1e:	ea08 0700 	and.w	r7, r8, r0
    1c22:	4287      	cmp	r7, r0
    1c24:	d1f6      	bne.n	1c14 <memalign+0x8>
/root/devel/optee/optee_os/lib/libutils/isoc/bget_malloc.c:541
    1c26:	2f08      	cmp	r7, #8
    1c28:	d807      	bhi.n	1c3a <memalign+0x2e>
raw_malloc():
/root/devel/optee/optee_os/lib/libutils/isoc/bget_malloc.c:320
    1c2a:	2900      	cmp	r1, #0
/root/devel/optee/optee_os/lib/libutils/isoc/bget_malloc.c:322
    1c2c:	bf14      	ite	ne
    1c2e:	4608      	movne	r0, r1
    1c30:	2001      	moveq	r0, #1
    1c32:	f7ff fd75 	bl	1720 <bget>
    1c36:	4605      	mov	r5, r0
    1c38:	e0cd      	b.n	1dd6 <memalign+0x1ca>
    1c3a:	f101 0610 	add.w	r6, r1, #16
raw_memalign():
/root/devel/optee/optee_os/lib/libutils/isoc/bget_malloc.c:548
    1c3e:	19f6      	adds	r6, r6, r7
    1c40:	d2e8      	bcs.n	1c14 <memalign+0x8>
    1c42:	428e      	cmp	r6, r1
    1c44:	d3e6      	bcc.n	1c14 <memalign+0x8>
/root/devel/optee/optee_os/lib/libutils/isoc/bget_malloc.c:551
    1c46:	4630      	mov	r0, r6
    1c48:	f7ff fd6a 	bl	1720 <bget>
    1c4c:	4603      	mov	r3, r0
    1c4e:	4605      	mov	r5, r0
/root/devel/optee/optee_os/lib/libutils/isoc/bget_malloc.c:552
    1c50:	2800      	cmp	r0, #0
    1c52:	d0df      	beq.n	1c14 <memalign+0x8>
/root/devel/optee/optee_os/lib/libutils/isoc/bget_malloc.c:555
    1c54:	1e7a      	subs	r2, r7, #1
    1c56:	4210      	tst	r0, r2
    1c58:	d050      	beq.n	1cfc <memalign+0xf0>
/root/devel/optee/optee_os/lib/libutils/isoc/bget_malloc.c:568
    1c5a:	19c5      	adds	r5, r0, r7
/root/devel/optee/optee_os/lib/libutils/isoc/bget_malloc.c:573
    1c5c:	4406      	add	r6, r0
/root/devel/optee/optee_os/lib/libutils/isoc/bget_malloc.c:569
    1c5e:	ea05 0508 	and.w	r5, r5, r8
/root/devel/optee/optee_os/lib/libutils/isoc/bget_malloc.c:571
    1c62:	1a2a      	subs	r2, r5, r0
    1c64:	2a0f      	cmp	r2, #15
/root/devel/optee/optee_os/lib/libutils/isoc/bget_malloc.c:572
    1c66:	bf98      	it	ls
    1c68:	19ed      	addls	r5, r5, r7
/root/devel/optee/optee_os/lib/libutils/isoc/bget_malloc.c:573
    1c6a:	192a      	adds	r2, r5, r4
    1c6c:	42b2      	cmp	r2, r6
    1c6e:	d906      	bls.n	1c7e <memalign+0x72>
    1c70:	495b      	ldr	r1, [pc, #364]	; (1de0 <memalign+0x1d4>)
    1c72:	f240 223d 	movw	r2, #573	; 0x23d
    1c76:	485b      	ldr	r0, [pc, #364]	; (1de4 <memalign+0x1d8>)
    1c78:	4479      	add	r1, pc
    1c7a:	4478      	add	r0, pc
    1c7c:	e0a7      	b.n	1dce <memalign+0x1c2>
brel_before():
/root/devel/optee/optee_os/lib/libutils/isoc/bget_malloc.c:410
    1c7e:	42a8      	cmp	r0, r5
    1c80:	d306      	bcc.n	1c90 <memalign+0x84>
    1c82:	4959      	ldr	r1, [pc, #356]	; (1de8 <memalign+0x1dc>)
    1c84:	f44f 72cd 	mov.w	r2, #410	; 0x19a
    1c88:	4858      	ldr	r0, [pc, #352]	; (1dec <memalign+0x1e0>)
    1c8a:	4479      	add	r1, pc
    1c8c:	4478      	add	r0, pc
    1c8e:	e09e      	b.n	1dce <memalign+0x1c2>
/root/devel/optee/optee_os/lib/libutils/isoc/bget_malloc.c:412
    1c90:	1a2e      	subs	r6, r5, r0
/root/devel/optee/optee_os/lib/libutils/isoc/bget_malloc.c:413
    1c92:	2e0f      	cmp	r6, #15
    1c94:	d806      	bhi.n	1ca4 <memalign+0x98>
    1c96:	4956      	ldr	r1, [pc, #344]	; (1df0 <memalign+0x1e4>)
    1c98:	f240 129d 	movw	r2, #413	; 0x19d
    1c9c:	4855      	ldr	r0, [pc, #340]	; (1df4 <memalign+0x1e8>)
    1c9e:	4479      	add	r1, pc
    1ca0:	4478      	add	r0, pc
    1ca2:	e094      	b.n	1dce <memalign+0x1c2>
/root/devel/optee/optee_os/lib/libutils/isoc/bget_malloc.c:422
    1ca4:	e953 1202 	ldrd	r1, r2, [r3, #-8]
/root/devel/optee/optee_os/lib/libutils/isoc/bget_malloc.c:416
    1ca8:	3808      	subs	r0, #8
    1caa:	4432      	add	r2, r6
/root/devel/optee/optee_os/lib/libutils/isoc/bget_malloc.c:422
    1cac:	b189      	cbz	r1, 1cd2 <memalign+0xc6>
/root/devel/optee/optee_os/lib/libutils/isoc/bget_malloc.c:427
    1cae:	1a40      	subs	r0, r0, r1
/root/devel/optee/optee_os/lib/libutils/isoc/bget_malloc.c:428
    1cb0:	6843      	ldr	r3, [r0, #4]
    1cb2:	428b      	cmp	r3, r1
    1cb4:	d006      	beq.n	1cc4 <memalign+0xb8>
    1cb6:	4950      	ldr	r1, [pc, #320]	; (1df8 <memalign+0x1ec>)
    1cb8:	f44f 72d6 	mov.w	r2, #428	; 0x1ac
    1cbc:	484f      	ldr	r0, [pc, #316]	; (1dfc <memalign+0x1f0>)
    1cbe:	4479      	add	r1, pc
    1cc0:	4478      	add	r0, pc
    1cc2:	e084      	b.n	1dce <memalign+0x1c2>
/root/devel/optee/optee_os/lib/libutils/isoc/bget_malloc.c:429
    1cc4:	4433      	add	r3, r6
    1cc6:	6043      	str	r3, [r0, #4]
/root/devel/optee/optee_os/lib/libutils/isoc/bget_malloc.c:432
    1cc8:	f845 3c08 	str.w	r3, [r5, #-8]
/root/devel/optee/optee_os/lib/libutils/isoc/bget_malloc.c:434
    1ccc:	f845 2c04 	str.w	r2, [r5, #-4]
    1cd0:	e006      	b.n	1ce0 <memalign+0xd4>
/root/devel/optee/optee_os/lib/libutils/isoc/bget_malloc.c:442
    1cd2:	f845 2c04 	str.w	r2, [r5, #-4]
/root/devel/optee/optee_os/lib/libutils/isoc/bget_malloc.c:444
    1cd6:	4631      	mov	r1, r6
    1cd8:	f1a5 0208 	sub.w	r2, r5, #8
    1cdc:	f7ff fcc8 	bl	1670 <create_free_block>
/root/devel/optee/optee_os/lib/libutils/isoc/bget_malloc.c:448
    1ce0:	4a47      	ldr	r2, [pc, #284]	; (1e00 <memalign+0x1f4>)
    1ce2:	447a      	add	r2, pc
    1ce4:	6813      	ldr	r3, [r2, #0]
    1ce6:	1b9e      	subs	r6, r3, r6
/root/devel/optee/optee_os/lib/libutils/isoc/bget_malloc.c:449
    1ce8:	2e00      	cmp	r6, #0
/root/devel/optee/optee_os/lib/libutils/isoc/bget_malloc.c:448
    1cea:	6016      	str	r6, [r2, #0]
/root/devel/optee/optee_os/lib/libutils/isoc/bget_malloc.c:449
    1cec:	da06      	bge.n	1cfc <memalign+0xf0>
    1cee:	4945      	ldr	r1, [pc, #276]	; (1e04 <memalign+0x1f8>)
    1cf0:	f240 12c1 	movw	r2, #449	; 0x1c1
    1cf4:	4844      	ldr	r0, [pc, #272]	; (1e08 <memalign+0x1fc>)
    1cf6:	4479      	add	r1, pc
    1cf8:	4478      	add	r0, pc
    1cfa:	e068      	b.n	1dce <memalign+0x1c2>
raw_memalign():
/root/devel/optee/optee_os/lib/libutils/isoc/bget_malloc.c:586
    1cfc:	2c08      	cmp	r4, #8
brel_after():
/root/devel/optee/optee_os/lib/libutils/isoc/bget_malloc.c:469
    1cfe:	f855 2c04 	ldr.w	r2, [r5, #-4]
raw_memalign():
/root/devel/optee/optee_os/lib/libutils/isoc/bget_malloc.c:586
    1d02:	bf38      	it	cc
    1d04:	2408      	movcc	r4, #8
brel_after():
/root/devel/optee/optee_os/lib/libutils/isoc/bget_malloc.c:465
    1d06:	3407      	adds	r4, #7
    1d08:	f024 0407 	bic.w	r4, r4, #7
/root/devel/optee/optee_os/lib/libutils/isoc/bget_malloc.c:468
    1d0c:	3408      	adds	r4, #8
/root/devel/optee/optee_os/lib/libutils/isoc/bget_malloc.c:469
    1d0e:	4256      	negs	r6, r2
    1d10:	42b4      	cmp	r4, r6
    1d12:	dd06      	ble.n	1d22 <memalign+0x116>
    1d14:	493d      	ldr	r1, [pc, #244]	; (1e0c <memalign+0x200>)
    1d16:	f240 12d5 	movw	r2, #469	; 0x1d5
    1d1a:	483d      	ldr	r0, [pc, #244]	; (1e10 <memalign+0x204>)
    1d1c:	4479      	add	r1, pc
    1d1e:	4478      	add	r0, pc
    1d20:	e055      	b.n	1dce <memalign+0x1c2>
/root/devel/optee/optee_os/lib/libutils/isoc/bget_malloc.c:475
    1d22:	1b36      	subs	r6, r6, r4
/root/devel/optee/optee_os/lib/libutils/isoc/bget_malloc.c:476
    1d24:	2e0f      	cmp	r6, #15
    1d26:	d956      	bls.n	1dd6 <memalign+0x1ca>
/root/devel/optee/optee_os/lib/libutils/isoc/bget_malloc.c:455
    1d28:	f1a5 0108 	sub.w	r1, r5, #8
/root/devel/optee/optee_os/lib/libutils/isoc/bget_malloc.c:483
    1d2c:	4263      	negs	r3, r4
/root/devel/optee/optee_os/lib/libutils/isoc/bget_malloc.c:479
    1d2e:	1a8a      	subs	r2, r1, r2
    1d30:	1908      	adds	r0, r1, r4
/root/devel/optee/optee_os/lib/libutils/isoc/bget_malloc.c:483
    1d32:	f845 3c04 	str.w	r3, [r5, #-4]
/root/devel/optee/optee_os/lib/libutils/isoc/bget_malloc.c:484
    1d36:	6857      	ldr	r7, [r2, #4]
    1d38:	2f00      	cmp	r7, #0
    1d3a:	dd38      	ble.n	1dae <memalign+0x1a2>
/root/devel/optee/optee_os/lib/libutils/isoc/bget_malloc.c:490
    1d3c:	f8d2 e000 	ldr.w	lr, [r2]
    1d40:	f1be 0f00 	cmp.w	lr, #0
    1d44:	d006      	beq.n	1d54 <memalign+0x148>
    1d46:	4933      	ldr	r1, [pc, #204]	; (1e14 <memalign+0x208>)
    1d48:	f44f 72f5 	mov.w	r2, #490	; 0x1ea
    1d4c:	4832      	ldr	r0, [pc, #200]	; (1e18 <memalign+0x20c>)
    1d4e:	4479      	add	r1, pc
    1d50:	4478      	add	r0, pc
    1d52:	e03c      	b.n	1dce <memalign+0x1c2>
/root/devel/optee/optee_os/lib/libutils/isoc/bget_malloc.c:491
    1d54:	59d3      	ldr	r3, [r2, r7]
    1d56:	42bb      	cmp	r3, r7
    1d58:	d006      	beq.n	1d68 <memalign+0x15c>
    1d5a:	4930      	ldr	r1, [pc, #192]	; (1e1c <memalign+0x210>)
    1d5c:	f240 12eb 	movw	r2, #491	; 0x1eb
    1d60:	482f      	ldr	r0, [pc, #188]	; (1e20 <memalign+0x214>)
    1d62:	4479      	add	r1, pc
    1d64:	4478      	add	r0, pc
    1d66:	e032      	b.n	1dce <memalign+0x1c2>
/root/devel/optee/optee_os/lib/libutils/isoc/bget_malloc.c:494
    1d68:	f841 e004 	str.w	lr, [r1, r4]
/root/devel/optee/optee_os/lib/libutils/isoc/bget_malloc.c:495
    1d6c:	1999      	adds	r1, r3, r6
    1d6e:	6041      	str	r1, [r0, #4]
/root/devel/optee/optee_os/lib/libutils/isoc/bget_malloc.c:498
    1d70:	58d1      	ldr	r1, [r2, r3]
    1d72:	4431      	add	r1, r6
    1d74:	50d1      	str	r1, [r2, r3]
/root/devel/optee/optee_os/lib/libutils/isoc/bget_malloc.c:504
    1d76:	68d3      	ldr	r3, [r2, #12]
    1d78:	6899      	ldr	r1, [r3, #8]
    1d7a:	4291      	cmp	r1, r2
    1d7c:	d006      	beq.n	1d8c <memalign+0x180>
    1d7e:	4929      	ldr	r1, [pc, #164]	; (1e24 <memalign+0x218>)
    1d80:	f44f 72fc 	mov.w	r2, #504	; 0x1f8
    1d84:	4828      	ldr	r0, [pc, #160]	; (1e28 <memalign+0x21c>)
    1d86:	4479      	add	r1, pc
    1d88:	4478      	add	r0, pc
    1d8a:	e020      	b.n	1dce <memalign+0x1c2>
/root/devel/optee/optee_os/lib/libutils/isoc/bget_malloc.c:505
    1d8c:	688a      	ldr	r2, [r1, #8]
    1d8e:	68d4      	ldr	r4, [r2, #12]
    1d90:	428c      	cmp	r4, r1
    1d92:	d006      	beq.n	1da2 <memalign+0x196>
    1d94:	4925      	ldr	r1, [pc, #148]	; (1e2c <memalign+0x220>)
    1d96:	f240 12f9 	movw	r2, #505	; 0x1f9
    1d9a:	4825      	ldr	r0, [pc, #148]	; (1e30 <memalign+0x224>)
    1d9c:	4479      	add	r1, pc
    1d9e:	4478      	add	r0, pc
    1da0:	e015      	b.n	1dce <memalign+0x1c2>
/root/devel/optee/optee_os/lib/libutils/isoc/bget_malloc.c:508
    1da2:	60c3      	str	r3, [r0, #12]
/root/devel/optee/optee_os/lib/libutils/isoc/bget_malloc.c:509
    1da4:	6082      	str	r2, [r0, #8]
/root/devel/optee/optee_os/lib/libutils/isoc/bget_malloc.c:512
    1da6:	6098      	str	r0, [r3, #8]
/root/devel/optee/optee_os/lib/libutils/isoc/bget_malloc.c:513
    1da8:	6883      	ldr	r3, [r0, #8]
    1daa:	60d8      	str	r0, [r3, #12]
    1dac:	e002      	b.n	1db4 <memalign+0x1a8>
/root/devel/optee/optee_os/lib/libutils/isoc/bget_malloc.c:516
    1dae:	4631      	mov	r1, r6
    1db0:	f7ff fc5e 	bl	1670 <create_free_block>
/root/devel/optee/optee_os/lib/libutils/isoc/bget_malloc.c:520
    1db4:	4a1f      	ldr	r2, [pc, #124]	; (1e34 <memalign+0x228>)
    1db6:	447a      	add	r2, pc
    1db8:	6813      	ldr	r3, [r2, #0]
    1dba:	1b9e      	subs	r6, r3, r6
/root/devel/optee/optee_os/lib/libutils/isoc/bget_malloc.c:521
    1dbc:	2e00      	cmp	r6, #0
/root/devel/optee/optee_os/lib/libutils/isoc/bget_malloc.c:520
    1dbe:	6016      	str	r6, [r2, #0]
/root/devel/optee/optee_os/lib/libutils/isoc/bget_malloc.c:521
    1dc0:	da09      	bge.n	1dd6 <memalign+0x1ca>
    1dc2:	491d      	ldr	r1, [pc, #116]	; (1e38 <memalign+0x22c>)
    1dc4:	f240 2209 	movw	r2, #521	; 0x209
    1dc8:	481c      	ldr	r0, [pc, #112]	; (1e3c <memalign+0x230>)
    1dca:	4479      	add	r1, pc
    1dcc:	4478      	add	r0, pc
    1dce:	f7ff fc29 	bl	1624 <_assert_log>
    1dd2:	f7ff fc3d 	bl	1650 <_assert_break>
raw_memalign():
/root/devel/optee/optee_os/lib/libutils/isoc/bget_malloc.c:588
    1dd6:	f7ff fc41 	bl	165c <raw_malloc_save_max_alloced_size>
/root/devel/optee/optee_os/lib/libutils/isoc/bget_malloc.c:590
    1dda:	4628      	mov	r0, r5
memalign():
/root/devel/optee/optee_os/lib/libutils/isoc/bget_malloc.c:864
    1ddc:	e8bd 81f0 	ldmia.w	sp!, {r4, r5, r6, r7, r8, pc}
    1de0:	00004736 	.word	0x00004736
    1de4:	000049d9 	.word	0x000049d9
    1de8:	00004724 	.word	0x00004724
    1dec:	000049f3 	.word	0x000049f3
    1df0:	00004710 	.word	0x00004710
    1df4:	000049f2 	.word	0x000049f2
    1df8:	000046f0 	.word	0x000046f0
    1dfc:	000049f9 	.word	0x000049f9
    1e00:	00006ee6 	.word	0x00006ee6
    1e04:	000046b8 	.word	0x000046b8
    1e08:	00004841 	.word	0x00004841
    1e0c:	00004692 	.word	0x00004692
    1e10:	000049bc 	.word	0x000049bc
    1e14:	00004660 	.word	0x00004660
    1e18:	000049a0 	.word	0x000049a0
    1e1c:	0000464c 	.word	0x0000464c
    1e20:	000049a2 	.word	0x000049a2
    1e24:	00004628 	.word	0x00004628
    1e28:	0000499d 	.word	0x0000499d
    1e2c:	00004612 	.word	0x00004612
    1e30:	000049a6 	.word	0x000049a6
    1e34:	00006e12 	.word	0x00006e12
    1e38:	000045e4 	.word	0x000045e4
    1e3c:	0000476d 	.word	0x0000476d

00001e40 <malloc_add_pool>:
malloc_add_pool():
/root/devel/optee/optee_os/lib/libutils/isoc/bget_malloc.c:879
    1e40:	4401      	add	r1, r0
/root/devel/optee/optee_os/lib/libutils/isoc/bget_malloc.c:881
    1e42:	3007      	adds	r0, #7
/root/devel/optee/optee_os/lib/libutils/isoc/bget_malloc.c:875
    1e44:	e92d 41f0 	stmdb	sp!, {r4, r5, r6, r7, r8, lr}
/root/devel/optee/optee_os/lib/libutils/isoc/bget_malloc.c:881
    1e48:	f020 0407 	bic.w	r4, r0, #7
/root/devel/optee/optee_os/lib/libutils/isoc/bget_malloc.c:882
    1e4c:	f021 0507 	bic.w	r5, r1, #7
/root/devel/optee/optee_os/lib/libutils/isoc/bget_malloc.c:883
    1e50:	42ac      	cmp	r4, r5
    1e52:	d306      	bcc.n	1e62 <malloc_add_pool+0x22>
/root/devel/optee/optee_os/lib/libutils/isoc/bget_malloc.c:883 (discriminator 1)
    1e54:	4918      	ldr	r1, [pc, #96]	; (1eb8 <malloc_add_pool+0x78>)
    1e56:	f240 3273 	movw	r2, #883	; 0x373
    1e5a:	4818      	ldr	r0, [pc, #96]	; (1ebc <malloc_add_pool+0x7c>)
    1e5c:	4479      	add	r1, pc
    1e5e:	4478      	add	r0, pc
    1e60:	e01a      	b.n	1e98 <malloc_add_pool+0x58>
/root/devel/optee/optee_os/lib/libutils/isoc/bget_malloc.c:887
    1e62:	4e17      	ldr	r6, [pc, #92]	; (1ec0 <malloc_add_pool+0x80>)
/root/devel/optee/optee_os/lib/libutils/isoc/bget_malloc.c:886
    1e64:	1b2d      	subs	r5, r5, r4
    1e66:	4620      	mov	r0, r4
    1e68:	4629      	mov	r1, r5
    1e6a:	f7ff fe03 	bl	1a74 <bpool>
/root/devel/optee/optee_os/lib/libutils/isoc/bget_malloc.c:887
    1e6e:	447e      	add	r6, pc
    1e70:	6937      	ldr	r7, [r6, #16]
raw_realloc():
/root/devel/optee/optee_os/lib/libutils/isoc/bget_malloc.c:374
    1e72:	6970      	ldr	r0, [r6, #20]
malloc_add_pool():
/root/devel/optee/optee_os/lib/libutils/isoc/bget_malloc.c:887
    1e74:	3701      	adds	r7, #1
raw_realloc():
/root/devel/optee/optee_os/lib/libutils/isoc/bget_malloc.c:371
    1e76:	00f9      	lsls	r1, r7, #3
/root/devel/optee/optee_os/lib/libutils/isoc/bget_malloc.c:374
    1e78:	bf08      	it	eq
    1e7a:	2101      	moveq	r1, #1
    1e7c:	f7ff fdd0 	bl	1a20 <bgetr>
    1e80:	4680      	mov	r8, r0
/root/devel/optee/optee_os/lib/libutils/isoc/bget_malloc.c:375
    1e82:	f7ff fbeb 	bl	165c <raw_malloc_save_max_alloced_size>
malloc_add_pool():
/root/devel/optee/optee_os/lib/libutils/isoc/bget_malloc.c:889
    1e86:	f1b8 0f00 	cmp.w	r8, #0
    1e8a:	d109      	bne.n	1ea0 <malloc_add_pool+0x60>
/root/devel/optee/optee_os/lib/libutils/isoc/bget_malloc.c:889 (discriminator 1)
    1e8c:	490d      	ldr	r1, [pc, #52]	; (1ec4 <malloc_add_pool+0x84>)
    1e8e:	f240 3279 	movw	r2, #889	; 0x379
    1e92:	480d      	ldr	r0, [pc, #52]	; (1ec8 <malloc_add_pool+0x88>)
    1e94:	4479      	add	r1, pc
    1e96:	4478      	add	r0, pc
    1e98:	f7ff fbc4 	bl	1624 <_assert_log>
    1e9c:	f7ff fbd8 	bl	1650 <_assert_break>
/root/devel/optee/optee_os/lib/libutils/isoc/bget_malloc.c:891
    1ea0:	6933      	ldr	r3, [r6, #16]
/root/devel/optee/optee_os/lib/libutils/isoc/bget_malloc.c:890
    1ea2:	f8c6 8014 	str.w	r8, [r6, #20]
/root/devel/optee/optee_os/lib/libutils/isoc/bget_malloc.c:893
    1ea6:	6137      	str	r7, [r6, #16]
/root/devel/optee/optee_os/lib/libutils/isoc/bget_malloc.c:891
    1ea8:	eb08 02c3 	add.w	r2, r8, r3, lsl #3
    1eac:	f848 4033 	str.w	r4, [r8, r3, lsl #3]
/root/devel/optee/optee_os/lib/libutils/isoc/bget_malloc.c:892
    1eb0:	6055      	str	r5, [r2, #4]
/root/devel/optee/optee_os/lib/libutils/isoc/bget_malloc.c:893
    1eb2:	e8bd 81f0 	ldmia.w	sp!, {r4, r5, r6, r7, r8, pc}
    1eb6:	bf00      	nop
    1eb8:	00004552 	.word	0x00004552
    1ebc:	00004905 	.word	0x00004905
    1ec0:	00006d5a 	.word	0x00006d5a
    1ec4:	0000451a 	.word	0x0000451a
    1ec8:	000048d9 	.word	0x000048d9

00001ecc <malloc_buffer_is_within_alloced>:
malloc_buffer_is_within_alloced():
/root/devel/optee/optee_os/lib/libutils/isoc/bget_malloc.c:910
    1ecc:	1841      	adds	r1, r0, r1
/root/devel/optee/optee_os/lib/libutils/isoc/bget_malloc.c:898
    1ece:	b5f8      	push	{r3, r4, r5, r6, r7, lr}
/root/devel/optee/optee_os/lib/libutils/isoc/bget_malloc.c:910
    1ed0:	d22e      	bcs.n	1f30 <malloc_buffer_is_within_alloced+0x64>
bpool_foreach_iterator_init():
/root/devel/optee/optee_os/lib/libutils/isoc/bget_malloc.c:242
    1ed2:	4b25      	ldr	r3, [pc, #148]	; (1f68 <malloc_buffer_is_within_alloced+0x9c>)
/root/devel/optee/optee_os/lib/libutils/isoc/bget_malloc.c:241
    1ed4:	2500      	movs	r5, #0
/root/devel/optee/optee_os/lib/libutils/isoc/bget_malloc.c:242
    1ed6:	447b      	add	r3, pc
    1ed8:	695e      	ldr	r6, [r3, #20]
bpool_foreach():
/root/devel/optee/optee_os/lib/libutils/isoc/bget_malloc.c:287
    1eda:	f8d3 e010 	ldr.w	lr, [r3, #16]
bpool_foreach_iterator_init():
/root/devel/optee/optee_os/lib/libutils/isoc/bget_malloc.c:242
    1ede:	6832      	ldr	r2, [r6, #0]
bpool_foreach_pool():
/root/devel/optee/optee_os/lib/libutils/isoc/bget_malloc.c:249
    1ee0:	6853      	ldr	r3, [r2, #4]
/root/devel/optee/optee_os/lib/libutils/isoc/bget_malloc.c:251
    1ee2:	f1b3 4f00 	cmp.w	r3, #2147483648	; 0x80000000
    1ee6:	d025      	beq.n	1f34 <malloc_buffer_is_within_alloced+0x68>
/root/devel/optee/optee_os/lib/libutils/isoc/bget_malloc.c:254
    1ee8:	2b00      	cmp	r3, #0
    1eea:	da02      	bge.n	1ef2 <malloc_buffer_is_within_alloced+0x26>
/root/devel/optee/optee_os/lib/libutils/isoc/bget_malloc.c:256
    1eec:	425c      	negs	r4, r3
/root/devel/optee/optee_os/lib/libutils/isoc/bget_malloc.c:258
    1eee:	2700      	movs	r7, #0
    1ef0:	e01a      	b.n	1f28 <malloc_buffer_is_within_alloced+0x5c>
/root/devel/optee/optee_os/lib/libutils/isoc/bget_malloc.c:264
    1ef2:	68d4      	ldr	r4, [r2, #12]
    1ef4:	68a4      	ldr	r4, [r4, #8]
    1ef6:	4294      	cmp	r4, r2
    1ef8:	d009      	beq.n	1f0e <malloc_buffer_is_within_alloced+0x42>
    1efa:	491c      	ldr	r1, [pc, #112]	; (1f6c <malloc_buffer_is_within_alloced+0xa0>)
    1efc:	f44f 7284 	mov.w	r2, #264	; 0x108
    1f00:	481b      	ldr	r0, [pc, #108]	; (1f70 <malloc_buffer_is_within_alloced+0xa4>)
    1f02:	4479      	add	r1, pc
    1f04:	4478      	add	r0, pc
    1f06:	f7ff fb8d 	bl	1624 <_assert_log>
    1f0a:	f7ff fba1 	bl	1650 <_assert_break>
/root/devel/optee/optee_os/lib/libutils/isoc/bget_malloc.c:265
    1f0e:	6894      	ldr	r4, [r2, #8]
    1f10:	68e4      	ldr	r4, [r4, #12]
    1f12:	4294      	cmp	r4, r2
    1f14:	d006      	beq.n	1f24 <malloc_buffer_is_within_alloced+0x58>
    1f16:	4917      	ldr	r1, [pc, #92]	; (1f74 <malloc_buffer_is_within_alloced+0xa8>)
    1f18:	f240 1209 	movw	r2, #265	; 0x109
    1f1c:	4816      	ldr	r0, [pc, #88]	; (1f78 <malloc_buffer_is_within_alloced+0xac>)
    1f1e:	4479      	add	r1, pc
    1f20:	4478      	add	r0, pc
    1f22:	e7f0      	b.n	1f06 <malloc_buffer_is_within_alloced+0x3a>
    1f24:	461c      	mov	r4, r3
/root/devel/optee/optee_os/lib/libutils/isoc/bget_malloc.c:261
    1f26:	2701      	movs	r7, #1
/root/devel/optee/optee_os/lib/libutils/isoc/bget_malloc.c:271
    1f28:	4414      	add	r4, r2
bpool_foreach():
/root/devel/optee/optee_os/lib/libutils/isoc/bget_malloc.c:282
    1f2a:	b14f      	cbz	r7, 1f40 <malloc_buffer_is_within_alloced+0x74>
bpool_foreach_iterator_init():
/root/devel/optee/optee_os/lib/libutils/isoc/bget_malloc.c:241
    1f2c:	4622      	mov	r2, r4
    1f2e:	e7d7      	b.n	1ee0 <malloc_buffer_is_within_alloced+0x14>
malloc_buffer_is_within_alloced():
/root/devel/optee/optee_os/lib/libutils/isoc/bget_malloc.c:903
    1f30:	2000      	movs	r0, #0
    1f32:	bdf8      	pop	{r3, r4, r5, r6, r7, pc}
bpool_foreach():
/root/devel/optee/optee_os/lib/libutils/isoc/bget_malloc.c:287
    1f34:	3501      	adds	r5, #1
    1f36:	4575      	cmp	r5, lr
    1f38:	d2fa      	bcs.n	1f30 <malloc_buffer_is_within_alloced+0x64>
/root/devel/optee/optee_os/lib/libutils/isoc/bget_malloc.c:291
    1f3a:	f856 4035 	ldr.w	r4, [r6, r5, lsl #3]
    1f3e:	e7f5      	b.n	1f2c <malloc_buffer_is_within_alloced+0x60>
bget_buf_size():
/root/devel/optee/optee_os/lib/libutils/isoc/bget_malloc.c:600
    1f40:	425b      	negs	r3, r3
bpool_foreach():
/root/devel/optee/optee_os/lib/libutils/isoc/bget_malloc.c:268
    1f42:	3208      	adds	r2, #8
bget_buf_size():
/root/devel/optee/optee_os/lib/libutils/isoc/bget_malloc.c:610
    1f44:	3b08      	subs	r3, #8
/root/devel/optee/optee_os/lib/libutils/isoc/bget_malloc.c:611
    1f46:	2b00      	cmp	r3, #0
    1f48:	dc06      	bgt.n	1f58 <malloc_buffer_is_within_alloced+0x8c>
    1f4a:	490c      	ldr	r1, [pc, #48]	; (1f7c <malloc_buffer_is_within_alloced+0xb0>)
    1f4c:	f240 2263 	movw	r2, #611	; 0x263
    1f50:	480b      	ldr	r0, [pc, #44]	; (1f80 <malloc_buffer_is_within_alloced+0xb4>)
    1f52:	4479      	add	r1, pc
    1f54:	4478      	add	r0, pc
    1f56:	e7d6      	b.n	1f06 <malloc_buffer_is_within_alloced+0x3a>
malloc_buffer_is_within_alloced():
/root/devel/optee/optee_os/lib/libutils/isoc/bget_malloc.c:921
    1f58:	4290      	cmp	r0, r2
    1f5a:	d3e7      	bcc.n	1f2c <malloc_buffer_is_within_alloced+0x60>
/root/devel/optee/optee_os/lib/libutils/isoc/bget_malloc.c:919 (discriminator 1)
    1f5c:	4413      	add	r3, r2
/root/devel/optee/optee_os/lib/libutils/isoc/bget_malloc.c:921 (discriminator 1)
    1f5e:	4299      	cmp	r1, r3
    1f60:	d8e4      	bhi.n	1f2c <malloc_buffer_is_within_alloced+0x60>
/root/devel/optee/optee_os/lib/libutils/isoc/bget_malloc.c:922
    1f62:	2001      	movs	r0, #1
    1f64:	bdf8      	pop	{r3, r4, r5, r6, r7, pc}
    1f66:	bf00      	nop
    1f68:	00006cf2 	.word	0x00006cf2
    1f6c:	000044ac 	.word	0x000044ac
    1f70:	000045a9 	.word	0x000045a9
    1f74:	00004490 	.word	0x00004490
    1f78:	000045a8 	.word	0x000045a8
    1f7c:	0000445c 	.word	0x0000445c
    1f80:	000046b0 	.word	0x000046b0

00001f84 <malloc_buffer_overlaps_heap>:
malloc_buffer_overlaps_heap():
/root/devel/optee/optee_os/lib/libutils/isoc/bget_malloc.c:944
    1f84:	4b0e      	ldr	r3, [pc, #56]	; (1fc0 <malloc_buffer_overlaps_heap+0x3c>)
/root/devel/optee/optee_os/lib/libutils/isoc/bget_malloc.c:936
    1f86:	4401      	add	r1, r0
/root/devel/optee/optee_os/lib/libutils/isoc/bget_malloc.c:934
    1f88:	b570      	push	{r4, r5, r6, lr}
/root/devel/optee/optee_os/lib/libutils/isoc/bget_malloc.c:944
    1f8a:	447b      	add	r3, pc
    1f8c:	691e      	ldr	r6, [r3, #16]
/root/devel/optee/optee_os/lib/libutils/isoc/bget_malloc.c:945
    1f8e:	695d      	ldr	r5, [r3, #20]
/root/devel/optee/optee_os/lib/libutils/isoc/bget_malloc.c:944
    1f90:	2300      	movs	r3, #0
/root/devel/optee/optee_os/lib/libutils/isoc/bget_malloc.c:944 (discriminator 1)
    1f92:	42b3      	cmp	r3, r6
    1f94:	d00f      	beq.n	1fb6 <malloc_buffer_overlaps_heap+0x32>
    1f96:	eb05 02c3 	add.w	r2, r5, r3, lsl #3
/root/devel/optee/optee_os/lib/libutils/isoc/bget_malloc.c:945
    1f9a:	f855 4033 	ldr.w	r4, [r5, r3, lsl #3]
/root/devel/optee/optee_os/lib/libutils/isoc/bget_malloc.c:948
    1f9e:	4288      	cmp	r0, r1
/root/devel/optee/optee_os/lib/libutils/isoc/bget_malloc.c:946
    1fa0:	6852      	ldr	r2, [r2, #4]
    1fa2:	4422      	add	r2, r4
/root/devel/optee/optee_os/lib/libutils/isoc/bget_malloc.c:948
    1fa4:	d809      	bhi.n	1fba <malloc_buffer_overlaps_heap+0x36>
/root/devel/optee/optee_os/lib/libutils/isoc/bget_malloc.c:948 (discriminator 1)
    1fa6:	4294      	cmp	r4, r2
    1fa8:	d807      	bhi.n	1fba <malloc_buffer_overlaps_heap+0x36>
/root/devel/optee/optee_os/lib/libutils/isoc/bget_malloc.c:953
    1faa:	42a1      	cmp	r1, r4
    1fac:	d805      	bhi.n	1fba <malloc_buffer_overlaps_heap+0x36>
/root/devel/optee/optee_os/lib/libutils/isoc/bget_malloc.c:953 (discriminator 1)
    1fae:	4290      	cmp	r0, r2
    1fb0:	d303      	bcc.n	1fba <malloc_buffer_overlaps_heap+0x36>
/root/devel/optee/optee_os/lib/libutils/isoc/bget_malloc.c:944 (discriminator 2)
    1fb2:	3301      	adds	r3, #1
    1fb4:	e7ed      	b.n	1f92 <malloc_buffer_overlaps_heap+0xe>
/root/devel/optee/optee_os/lib/libutils/isoc/bget_malloc.c:938
    1fb6:	2000      	movs	r0, #0
    1fb8:	bd70      	pop	{r4, r5, r6, pc}
/root/devel/optee/optee_os/lib/libutils/isoc/bget_malloc.c:949
    1fba:	2001      	movs	r0, #1
/root/devel/optee/optee_os/lib/libutils/isoc/bget_malloc.c:962
    1fbc:	bd70      	pop	{r4, r5, r6, pc}
    1fbe:	bf00      	nop
    1fc0:	00006c3e 	.word	0x00006c3e

00001fc4 <__vsnprintf>:
__vsnprintf():
/root/devel/optee/optee_os/lib/libutils/ext/snprintk.c:136
    1fc4:	e92d 4ff0 	stmdb	sp!, {r4, r5, r6, r7, r8, r9, sl, fp, lr}
    1fc8:	b0a3      	sub	sp, #140	; 0x8c
    1fca:	4694      	mov	ip, r2
    1fcc:	f89d 20b0 	ldrb.w	r2, [sp, #176]	; 0xb0
/root/devel/optee/optee_os/lib/libutils/ext/snprintk.c:140
    1fd0:	4680      	mov	r8, r0
/root/devel/optee/optee_os/lib/libutils/ext/snprintk.c:136
    1fd2:	900e      	str	r0, [sp, #56]	; 0x38
    1fd4:	9110      	str	r1, [sp, #64]	; 0x40
    1fd6:	9211      	str	r2, [sp, #68]	; 0x44
/root/devel/optee/optee_os/lib/libutils/ext/snprintk.c:140
    1fd8:	4602      	mov	r2, r0
    1fda:	440a      	add	r2, r1
    1fdc:	920c      	str	r2, [sp, #48]	; 0x30
    1fde:	461a      	mov	r2, r3
kprintf():
/root/devel/optee/optee_os/lib/libutils/ext/snprintk.c:268
    1fe0:	2300      	movs	r3, #0
    1fe2:	930d      	str	r3, [sp, #52]	; 0x34
/root/devel/optee/optee_os/lib/libutils/ext/snprintk.c:266
    1fe4:	930a      	str	r3, [sp, #40]	; 0x28
/root/devel/optee/optee_os/lib/libutils/ext/snprintk.c:473
    1fe6:	f8df 3730 	ldr.w	r3, [pc, #1840]	; 2718 <__vsnprintf+0x754>
    1fea:	447b      	add	r3, pc
    1fec:	9312      	str	r3, [sp, #72]	; 0x48
/root/devel/optee/optee_os/lib/libutils/ext/snprintk.c:436
    1fee:	f8df 372c 	ldr.w	r3, [pc, #1836]	; 271c <__vsnprintf+0x758>
    1ff2:	447b      	add	r3, pc
    1ff4:	9313      	str	r3, [sp, #76]	; 0x4c
uuid2str():
/root/devel/optee/optee_os/lib/libutils/ext/snprintk.c:222
    1ff6:	f8df 3728 	ldr.w	r3, [pc, #1832]	; 2720 <__vsnprintf+0x75c>
    1ffa:	447b      	add	r3, pc
    1ffc:	9314      	str	r3, [sp, #80]	; 0x50
kprintf():
/root/devel/optee/optee_os/lib/libutils/ext/snprintk.c:443
    1ffe:	f8df 3724 	ldr.w	r3, [pc, #1828]	; 2724 <__vsnprintf+0x760>
    2002:	447b      	add	r3, pc
    2004:	9315      	str	r3, [sp, #84]	; 0x54
/root/devel/optee/optee_os/lib/libutils/ext/snprintk.c:470
    2006:	f8df 3720 	ldr.w	r3, [pc, #1824]	; 2728 <__vsnprintf+0x764>
    200a:	447b      	add	r3, pc
    200c:	9316      	str	r3, [sp, #88]	; 0x58
/root/devel/optee/optee_os/lib/libutils/ext/snprintk.c:274
    200e:	f89c 3000 	ldrb.w	r3, [ip]
    2012:	2b25      	cmp	r3, #37	; 0x25
    2014:	d014      	beq.n	2040 <__vsnprintf+0x7c>
    2016:	2b00      	cmp	r3, #0
    2018:	f000 8360 	beq.w	26dc <__vsnprintf+0x718>
/root/devel/optee/optee_os/lib/libutils/ext/snprintk.c:275
    201c:	990a      	ldr	r1, [sp, #40]	; 0x28
    201e:	3101      	adds	r1, #1
    2020:	910a      	str	r1, [sp, #40]	; 0x28
/root/devel/optee/optee_os/lib/libutils/ext/snprintk.c:276
    2022:	f1b8 0f00 	cmp.w	r8, #0
    2026:	d006      	beq.n	2036 <__vsnprintf+0x72>
    2028:	990c      	ldr	r1, [sp, #48]	; 0x30
    202a:	4588      	cmp	r8, r1
    202c:	bf3c      	itt	cc
    202e:	f888 3000 	strbcc.w	r3, [r8]
    2032:	f108 0801 	addcc.w	r8, r8, #1
/root/devel/optee/optee_os/lib/libutils/ext/snprintk.c:274
    2036:	f10c 0c01 	add.w	ip, ip, #1
    203a:	4617      	mov	r7, r2
    203c:	463a      	mov	r2, r7
    203e:	e7e6      	b.n	200e <__vsnprintf+0x4a>
/root/devel/optee/optee_os/lib/libutils/ext/snprintk.c:287
    2040:	f04f 0900 	mov.w	r9, #0
/root/devel/optee/optee_os/lib/libutils/ext/snprintk.c:281
    2044:	f10c 0301 	add.w	r3, ip, #1
/root/devel/optee/optee_os/lib/libutils/ext/snprintk.c:286
    2048:	f04f 3bff 	mov.w	fp, #4294967295
/root/devel/optee/optee_os/lib/libutils/ext/snprintk.c:283
    204c:	464e      	mov	r6, r9
/root/devel/optee/optee_os/lib/libutils/ext/snprintk.c:345
    204e:	210a      	movs	r1, #10
/root/devel/optee/optee_os/lib/libutils/ext/snprintk.c:285
    2050:	f8cd 902c 	str.w	r9, [sp, #44]	; 0x2c
/root/devel/optee/optee_os/lib/libutils/ext/snprintk.c:289
    2054:	f893 a000 	ldrb.w	sl, [r3]
    2058:	f103 0c01 	add.w	ip, r3, #1
/root/devel/optee/optee_os/lib/libutils/ext/snprintk.c:290
    205c:	f1ba 0f63 	cmp.w	sl, #99	; 0x63
    2060:	f000 80cc 	beq.w	21fc <__vsnprintf+0x238>
    2064:	dc3a      	bgt.n	20dc <__vsnprintf+0x118>
    2066:	f1ba 0f30 	cmp.w	sl, #48	; 0x30
    206a:	f000 80a4 	beq.w	21b6 <__vsnprintf+0x1f2>
    206e:	dc1a      	bgt.n	20a6 <__vsnprintf+0xe2>
    2070:	f1ba 0f2a 	cmp.w	sl, #42	; 0x2a
    2074:	d075      	beq.n	2162 <__vsnprintf+0x19e>
    2076:	dc0a      	bgt.n	208e <__vsnprintf+0xca>
    2078:	f1ba 0f20 	cmp.w	sl, #32
    207c:	d06b      	beq.n	2156 <__vsnprintf+0x192>
    207e:	f1ba 0f23 	cmp.w	sl, #35	; 0x23
    2082:	f040 8282 	bne.w	258a <__vsnprintf+0x5c6>
/root/devel/optee/optee_os/lib/libutils/ext/snprintk.c:301
    2086:	f046 0601 	orr.w	r6, r6, #1
/root/devel/optee/optee_os/lib/libutils/ext/snprintk.c:310
    208a:	4663      	mov	r3, ip
    208c:	e7e2      	b.n	2054 <__vsnprintf+0x90>
/root/devel/optee/optee_os/lib/libutils/ext/snprintk.c:290
    208e:	f1ba 0f2d 	cmp.w	sl, #45	; 0x2d
    2092:	d070      	beq.n	2176 <__vsnprintf+0x1b2>
    2094:	f1ba 0f2e 	cmp.w	sl, #46	; 0x2e
    2098:	d070      	beq.n	217c <__vsnprintf+0x1b8>
    209a:	f1ba 0f2b 	cmp.w	sl, #43	; 0x2b
    209e:	f040 8274 	bne.w	258a <__vsnprintf+0x5c6>
/root/devel/optee/optee_os/lib/libutils/ext/snprintk.c:318
    20a2:	46d1      	mov	r9, sl
    20a4:	e7f1      	b.n	208a <__vsnprintf+0xc6>
/root/devel/optee/optee_os/lib/libutils/ext/snprintk.c:290
    20a6:	f1ba 0f44 	cmp.w	sl, #68	; 0x44
    20aa:	f000 80ad 	beq.w	2208 <__vsnprintf+0x244>
    20ae:	dc06      	bgt.n	20be <__vsnprintf+0xfa>
    20b0:	f1ba 0f39 	cmp.w	sl, #57	; 0x39
    20b4:	f300 8269 	bgt.w	258a <__vsnprintf+0x5c6>
    20b8:	2300      	movs	r3, #0
    20ba:	930b      	str	r3, [sp, #44]	; 0x2c
    20bc:	e07e      	b.n	21bc <__vsnprintf+0x1f8>
    20be:	f1ba 0f55 	cmp.w	sl, #85	; 0x55
    20c2:	f000 818c 	beq.w	23de <__vsnprintf+0x41a>
    20c6:	f1ba 0f58 	cmp.w	sl, #88	; 0x58
    20ca:	f000 81c5 	beq.w	2458 <__vsnprintf+0x494>
    20ce:	f1ba 0f4f 	cmp.w	sl, #79	; 0x4f
    20d2:	f040 825a 	bne.w	258a <__vsnprintf+0x5c6>
/root/devel/optee/optee_os/lib/libutils/ext/snprintk.c:407
    20d6:	f046 0610 	orr.w	r6, r6, #16
    20da:	e0e1      	b.n	22a0 <__vsnprintf+0x2dc>
/root/devel/optee/optee_os/lib/libutils/ext/snprintk.c:290
    20dc:	f1ba 0f6f 	cmp.w	sl, #111	; 0x6f
    20e0:	f000 80de 	beq.w	22a0 <__vsnprintf+0x2dc>
    20e4:	dc1d      	bgt.n	2122 <__vsnprintf+0x15e>
    20e6:	f1ba 0f69 	cmp.w	sl, #105	; 0x69
    20ea:	f000 808f 	beq.w	220c <__vsnprintf+0x248>
    20ee:	dc0a      	bgt.n	2106 <__vsnprintf+0x142>
    20f0:	f1ba 0f64 	cmp.w	sl, #100	; 0x64
    20f4:	f000 808a 	beq.w	220c <__vsnprintf+0x248>
    20f8:	f1ba 0f68 	cmp.w	sl, #104	; 0x68
    20fc:	f040 8245 	bne.w	258a <__vsnprintf+0x5c6>
/root/devel/optee/optee_os/lib/libutils/ext/snprintk.c:351
    2100:	f046 0640 	orr.w	r6, r6, #64	; 0x40
    2104:	e7c1      	b.n	208a <__vsnprintf+0xc6>
/root/devel/optee/optee_os/lib/libutils/ext/snprintk.c:290
    2106:	f1ba 0f6c 	cmp.w	sl, #108	; 0x6c
    210a:	d064      	beq.n	21d6 <__vsnprintf+0x212>
    210c:	f1ba 0f6e 	cmp.w	sl, #110	; 0x6e
    2110:	f000 80a7 	beq.w	2262 <__vsnprintf+0x29e>
    2114:	f1ba 0f6a 	cmp.w	sl, #106	; 0x6a
    2118:	f040 8237 	bne.w	258a <__vsnprintf+0x5c6>
/root/devel/optee/optee_os/lib/libutils/ext/snprintk.c:354
    211c:	f046 0680 	orr.w	r6, r6, #128	; 0x80
    2120:	e7b3      	b.n	208a <__vsnprintf+0xc6>
/root/devel/optee/optee_os/lib/libutils/ext/snprintk.c:290
    2122:	f1ba 0f74 	cmp.w	sl, #116	; 0x74
    2126:	d063      	beq.n	21f0 <__vsnprintf+0x22c>
    2128:	dc09      	bgt.n	213e <__vsnprintf+0x17a>
    212a:	f1ba 0f71 	cmp.w	sl, #113	; 0x71
    212e:	d05c      	beq.n	21ea <__vsnprintf+0x226>
    2130:	f2c0 80e8 	blt.w	2304 <__vsnprintf+0x340>
    2134:	f1ba 0f73 	cmp.w	sl, #115	; 0x73
    2138:	f000 8128 	beq.w	238c <__vsnprintf+0x3c8>
    213c:	e225      	b.n	258a <__vsnprintf+0x5c6>
    213e:	f1ba 0f78 	cmp.w	sl, #120	; 0x78
    2142:	f000 8186 	beq.w	2452 <__vsnprintf+0x48e>
    2146:	f1ba 0f7a 	cmp.w	sl, #122	; 0x7a
    214a:	d054      	beq.n	21f6 <__vsnprintf+0x232>
    214c:	f1ba 0f75 	cmp.w	sl, #117	; 0x75
    2150:	f040 821b 	bne.w	258a <__vsnprintf+0x5c6>
    2154:	e145      	b.n	23e2 <__vsnprintf+0x41e>
/root/devel/optee/optee_os/lib/libutils/ext/snprintk.c:298
    2156:	f1b9 0f00 	cmp.w	r9, #0
    215a:	bf08      	it	eq
    215c:	f04f 0920 	moveq.w	r9, #32
    2160:	e793      	b.n	208a <__vsnprintf+0xc6>
/root/devel/optee/optee_os/lib/libutils/ext/snprintk.c:310
    2162:	1d13      	adds	r3, r2, #4
    2164:	6812      	ldr	r2, [r2, #0]
    2166:	2a00      	cmp	r2, #0
    2168:	920b      	str	r2, [sp, #44]	; 0x2c
    216a:	db01      	blt.n	2170 <__vsnprintf+0x1ac>
    216c:	461a      	mov	r2, r3
    216e:	e78c      	b.n	208a <__vsnprintf+0xc6>
/root/devel/optee/optee_os/lib/libutils/ext/snprintk.c:312
    2170:	4252      	negs	r2, r2
    2172:	920b      	str	r2, [sp, #44]	; 0x2c
/root/devel/optee/optee_os/lib/libutils/ext/snprintk.c:310
    2174:	461a      	mov	r2, r3
/root/devel/optee/optee_os/lib/libutils/ext/snprintk.c:315
    2176:	f046 0604 	orr.w	r6, r6, #4
    217a:	e786      	b.n	208a <__vsnprintf+0xc6>
/root/devel/optee/optee_os/lib/libutils/ext/snprintk.c:321
    217c:	f89c a000 	ldrb.w	sl, [ip]
    2180:	f10c 0301 	add.w	r3, ip, #1
    2184:	f1ba 0f2a 	cmp.w	sl, #42	; 0x2a
    2188:	d002      	beq.n	2190 <__vsnprintf+0x1cc>
    218a:	f04f 0b00 	mov.w	fp, #0
    218e:	e005      	b.n	219c <__vsnprintf+0x1d8>
/root/devel/optee/optee_os/lib/libutils/ext/snprintk.c:323
    2190:	6810      	ldr	r0, [r2, #0]
/root/devel/optee/optee_os/lib/libutils/ext/snprintk.c:321
    2192:	469c      	mov	ip, r3
/root/devel/optee/optee_os/lib/libutils/ext/snprintk.c:322
    2194:	3204      	adds	r2, #4
/root/devel/optee/optee_os/lib/libutils/ext/snprintk.c:323
    2196:	ea40 7be0 	orr.w	fp, r0, r0, asr #31
    219a:	e776      	b.n	208a <__vsnprintf+0xc6>
/root/devel/optee/optee_os/lib/libutils/ext/snprintk.c:327
    219c:	f1aa 0030 	sub.w	r0, sl, #48	; 0x30
    21a0:	2809      	cmp	r0, #9
    21a2:	d804      	bhi.n	21ae <__vsnprintf+0x1ea>
/root/devel/optee/optee_os/lib/libutils/ext/snprintk.c:328
    21a4:	fb01 0b0b 	mla	fp, r1, fp, r0
/root/devel/optee/optee_os/lib/libutils/ext/snprintk.c:329
    21a8:	f813 ab01 	ldrb.w	sl, [r3], #1
    21ac:	e7f6      	b.n	219c <__vsnprintf+0x1d8>
/root/devel/optee/optee_os/lib/libutils/ext/snprintk.c:331
    21ae:	ea4b 7beb 	orr.w	fp, fp, fp, asr #31
    21b2:	469c      	mov	ip, r3
    21b4:	e752      	b.n	205c <__vsnprintf+0x98>
/root/devel/optee/optee_os/lib/libutils/ext/snprintk.c:339
    21b6:	f446 6680 	orr.w	r6, r6, #1024	; 0x400
    21ba:	e766      	b.n	208a <__vsnprintf+0xc6>
/root/devel/optee/optee_os/lib/libutils/ext/snprintk.c:345
    21bc:	9b0b      	ldr	r3, [sp, #44]	; 0x2c
    21be:	f1aa 0a30 	sub.w	sl, sl, #48	; 0x30
    21c2:	fb01 a303 	mla	r3, r1, r3, sl
/root/devel/optee/optee_os/lib/libutils/ext/snprintk.c:346
    21c6:	f81c ab01 	ldrb.w	sl, [ip], #1
/root/devel/optee/optee_os/lib/libutils/ext/snprintk.c:345
    21ca:	930b      	str	r3, [sp, #44]	; 0x2c
/root/devel/optee/optee_os/lib/libutils/ext/snprintk.c:347
    21cc:	f1aa 0330 	sub.w	r3, sl, #48	; 0x30
    21d0:	2b09      	cmp	r3, #9
    21d2:	d9f3      	bls.n	21bc <__vsnprintf+0x1f8>
    21d4:	e742      	b.n	205c <__vsnprintf+0x98>
/root/devel/optee/optee_os/lib/libutils/ext/snprintk.c:357
    21d6:	f89c 3000 	ldrb.w	r3, [ip]
    21da:	2b6c      	cmp	r3, #108	; 0x6c
    21dc:	d102      	bne.n	21e4 <__vsnprintf+0x220>
/root/devel/optee/optee_os/lib/libutils/ext/snprintk.c:358
    21de:	f10c 0c01 	add.w	ip, ip, #1
    21e2:	e002      	b.n	21ea <__vsnprintf+0x226>
/root/devel/optee/optee_os/lib/libutils/ext/snprintk.c:361
    21e4:	f046 0610 	orr.w	r6, r6, #16
    21e8:	e74f      	b.n	208a <__vsnprintf+0xc6>
/root/devel/optee/optee_os/lib/libutils/ext/snprintk.c:365
    21ea:	f046 0620 	orr.w	r6, r6, #32
    21ee:	e74c      	b.n	208a <__vsnprintf+0xc6>
/root/devel/optee/optee_os/lib/libutils/ext/snprintk.c:368
    21f0:	f446 7680 	orr.w	r6, r6, #256	; 0x100
    21f4:	e749      	b.n	208a <__vsnprintf+0xc6>
/root/devel/optee/optee_os/lib/libutils/ext/snprintk.c:371
    21f6:	f446 7600 	orr.w	r6, r6, #512	; 0x200
    21fa:	e746      	b.n	208a <__vsnprintf+0xc6>
/root/devel/optee/optee_os/lib/libutils/ext/snprintk.c:374
    21fc:	1d17      	adds	r7, r2, #4
    21fe:	6812      	ldr	r2, [r2, #0]
    2200:	ab22      	add	r3, sp, #136	; 0x88
    2202:	f803 2d24 	strb.w	r2, [r3, #-36]!
    2206:	e1c8      	b.n	259a <__vsnprintf+0x5d6>
/root/devel/optee/optee_os/lib/libutils/ext/snprintk.c:379
    2208:	f046 0610 	orr.w	r6, r6, #16
/root/devel/optee/optee_os/lib/libutils/ext/snprintk.c:383
    220c:	0633      	lsls	r3, r6, #24
    220e:	d407      	bmi.n	2220 <__vsnprintf+0x25c>
    2210:	05f7      	lsls	r7, r6, #23
    2212:	d401      	bmi.n	2218 <__vsnprintf+0x254>
    2214:	05b5      	lsls	r5, r6, #22
    2216:	d501      	bpl.n	221c <__vsnprintf+0x258>
    2218:	1d17      	adds	r7, r2, #4
    221a:	e013      	b.n	2244 <__vsnprintf+0x280>
    221c:	06b4      	lsls	r4, r6, #26
    221e:	d507      	bpl.n	2230 <__vsnprintf+0x26c>
    2220:	3207      	adds	r2, #7
    2222:	f022 0207 	bic.w	r2, r2, #7
    2226:	f102 0708 	add.w	r7, r2, #8
    222a:	e9d2 4500 	ldrd	r4, r5, [r2]
    222e:	e00b      	b.n	2248 <__vsnprintf+0x284>
    2230:	f016 0f10 	tst.w	r6, #16
    2234:	f102 0704 	add.w	r7, r2, #4
    2238:	d104      	bne.n	2244 <__vsnprintf+0x280>
    223a:	0670      	lsls	r0, r6, #25
    223c:	d502      	bpl.n	2244 <__vsnprintf+0x280>
    223e:	f9b2 4000 	ldrsh.w	r4, [r2]
    2242:	e000      	b.n	2246 <__vsnprintf+0x282>
    2244:	6814      	ldr	r4, [r2, #0]
    2246:	17e5      	asrs	r5, r4, #31
/root/devel/optee/optee_os/lib/libutils/ext/snprintk.c:384
    2248:	2c00      	cmp	r4, #0
    224a:	f175 0300 	sbcs.w	r3, r5, #0
    224e:	f280 8131 	bge.w	24b4 <__vsnprintf+0x4f0>
/root/devel/optee/optee_os/lib/libutils/ext/snprintk.c:385
    2252:	4264      	negs	r4, r4
/root/devel/optee/optee_os/lib/libutils/ext/snprintk.c:388
    2254:	f04f 0301 	mov.w	r3, #1
/root/devel/optee/optee_os/lib/libutils/ext/snprintk.c:385
    2258:	eb65 0545 	sbc.w	r5, r5, r5, lsl #1
/root/devel/optee/optee_os/lib/libutils/ext/snprintk.c:386
    225c:	f04f 092d 	mov.w	r9, #45	; 0x2d
    2260:	e12b      	b.n	24ba <__vsnprintf+0x4f6>
/root/devel/optee/optee_os/lib/libutils/ext/snprintk.c:391
    2262:	f016 0f80 	tst.w	r6, #128	; 0x80
    2266:	f102 0704 	add.w	r7, r2, #4
    226a:	d105      	bne.n	2278 <__vsnprintf+0x2b4>
/root/devel/optee/optee_os/lib/libutils/ext/snprintk.c:393
    226c:	05f1      	lsls	r1, r6, #23
    226e:	d413      	bmi.n	2298 <__vsnprintf+0x2d4>
/root/devel/optee/optee_os/lib/libutils/ext/snprintk.c:395
    2270:	05b3      	lsls	r3, r6, #22
    2272:	d411      	bmi.n	2298 <__vsnprintf+0x2d4>
/root/devel/optee/optee_os/lib/libutils/ext/snprintk.c:397
    2274:	06b5      	lsls	r5, r6, #26
    2276:	d506      	bpl.n	2286 <__vsnprintf+0x2c2>
/root/devel/optee/optee_os/lib/libutils/ext/snprintk.c:398
    2278:	6813      	ldr	r3, [r2, #0]
    227a:	9a0a      	ldr	r2, [sp, #40]	; 0x28
    227c:	17d1      	asrs	r1, r2, #31
    227e:	4610      	mov	r0, r2
    2280:	e9c3 0100 	strd	r0, r1, [r3]
    2284:	e6da      	b.n	203c <__vsnprintf+0x78>
/root/devel/optee/optee_os/lib/libutils/ext/snprintk.c:399
    2286:	06f4      	lsls	r4, r6, #27
    2288:	d406      	bmi.n	2298 <__vsnprintf+0x2d4>
/root/devel/optee/optee_os/lib/libutils/ext/snprintk.c:401
    228a:	0670      	lsls	r0, r6, #25
    228c:	d504      	bpl.n	2298 <__vsnprintf+0x2d4>
/root/devel/optee/optee_os/lib/libutils/ext/snprintk.c:402
    228e:	6813      	ldr	r3, [r2, #0]
    2290:	f8bd 2028 	ldrh.w	r2, [sp, #40]	; 0x28
    2294:	801a      	strh	r2, [r3, #0]
    2296:	e6d1      	b.n	203c <__vsnprintf+0x78>
/root/devel/optee/optee_os/lib/libutils/ext/snprintk.c:404
    2298:	6813      	ldr	r3, [r2, #0]
    229a:	9a0a      	ldr	r2, [sp, #40]	; 0x28
    229c:	601a      	str	r2, [r3, #0]
    229e:	e6cd      	b.n	203c <__vsnprintf+0x78>
/root/devel/optee/optee_os/lib/libutils/ext/snprintk.c:410
    22a0:	f016 0180 	ands.w	r1, r6, #128	; 0x80
    22a4:	d008      	beq.n	22b8 <__vsnprintf+0x2f4>
    22a6:	3207      	adds	r2, #7
/root/devel/optee/optee_os/lib/libutils/ext/snprintk.c:411
    22a8:	2300      	movs	r3, #0
/root/devel/optee/optee_os/lib/libutils/ext/snprintk.c:410
    22aa:	f022 0207 	bic.w	r2, r2, #7
    22ae:	f102 0708 	add.w	r7, r2, #8
    22b2:	e9d2 4500 	ldrd	r4, r5, [r2]
    22b6:	e020      	b.n	22fa <__vsnprintf+0x336>
    22b8:	f416 7380 	ands.w	r3, r6, #256	; 0x100
    22bc:	d002      	beq.n	22c4 <__vsnprintf+0x300>
    22be:	1d17      	adds	r7, r2, #4
    22c0:	6814      	ldr	r4, [r2, #0]
    22c2:	e018      	b.n	22f6 <__vsnprintf+0x332>
    22c4:	f416 7100 	ands.w	r1, r6, #512	; 0x200
    22c8:	d001      	beq.n	22ce <__vsnprintf+0x30a>
    22ca:	1d17      	adds	r7, r2, #4
    22cc:	e017      	b.n	22fe <__vsnprintf+0x33a>
    22ce:	f016 0320 	ands.w	r3, r6, #32
    22d2:	d007      	beq.n	22e4 <__vsnprintf+0x320>
    22d4:	3207      	adds	r2, #7
    22d6:	f022 0207 	bic.w	r2, r2, #7
    22da:	f102 0708 	add.w	r7, r2, #8
    22de:	e9d2 4500 	ldrd	r4, r5, [r2]
    22e2:	e009      	b.n	22f8 <__vsnprintf+0x334>
    22e4:	f016 0110 	ands.w	r1, r6, #16
    22e8:	f102 0704 	add.w	r7, r2, #4
    22ec:	d107      	bne.n	22fe <__vsnprintf+0x33a>
    22ee:	f016 0340 	ands.w	r3, r6, #64	; 0x40
    22f2:	d004      	beq.n	22fe <__vsnprintf+0x33a>
    22f4:	8814      	ldrh	r4, [r2, #0]
    22f6:	2500      	movs	r5, #0
/root/devel/optee/optee_os/lib/libutils/ext/snprintk.c:411
    22f8:	460b      	mov	r3, r1
/root/devel/optee/optee_os/lib/libutils/ext/snprintk.c:481
    22fa:	4699      	mov	r9, r3
    22fc:	e0dd      	b.n	24ba <__vsnprintf+0x4f6>
/root/devel/optee/optee_os/lib/libutils/ext/snprintk.c:410
    22fe:	6814      	ldr	r4, [r2, #0]
    2300:	2500      	movs	r5, #0
    2302:	e7fa      	b.n	22fa <__vsnprintf+0x336>
/root/devel/optee/optee_os/lib/libutils/ext/snprintk.c:414
    2304:	9b11      	ldr	r3, [sp, #68]	; 0x44
    2306:	2b00      	cmp	r3, #0
    2308:	d032      	beq.n	2370 <__vsnprintf+0x3ac>
    230a:	f89c 3000 	ldrb.w	r3, [ip]
    230e:	2b55      	cmp	r3, #85	; 0x55
    2310:	d12e      	bne.n	2370 <__vsnprintf+0x3ac>
    2312:	f89c 3001 	ldrb.w	r3, [ip, #1]
    2316:	2b6c      	cmp	r3, #108	; 0x6c
    2318:	d12a      	bne.n	2370 <__vsnprintf+0x3ac>
/root/devel/optee/optee_os/lib/libutils/ext/snprintk.c:420
    231a:	6813      	ldr	r3, [r2, #0]
    231c:	1d17      	adds	r7, r2, #4
/root/devel/optee/optee_os/lib/libutils/ext/snprintk.c:419
    231e:	f10c 0c02 	add.w	ip, ip, #2
uuid2str():
/root/devel/optee/optee_os/lib/libutils/ext/snprintk.c:222
    2322:	ad19      	add	r5, sp, #100	; 0x64
    2324:	2124      	movs	r1, #36	; 0x24
    2326:	4628      	mov	r0, r5
kprintf():
/root/devel/optee/optee_os/lib/libutils/ext/snprintk.c:419
    2328:	f8cd c03c 	str.w	ip, [sp, #60]	; 0x3c
/root/devel/optee/optee_os/lib/libutils/ext/snprintk.c:284
    232c:	f04f 0b00 	mov.w	fp, #0
/root/devel/optee/optee_os/lib/libutils/ext/snprintk.c:419
    2330:	f8cd c05c 	str.w	ip, [sp, #92]	; 0x5c
/root/devel/optee/optee_os/lib/libutils/ext/snprintk.c:423
    2334:	46d9      	mov	r9, fp
uuid2str():
/root/devel/optee/optee_os/lib/libutils/ext/snprintk.c:222
    2336:	7bda      	ldrb	r2, [r3, #15]
    2338:	9209      	str	r2, [sp, #36]	; 0x24
    233a:	7b9a      	ldrb	r2, [r3, #14]
    233c:	9208      	str	r2, [sp, #32]
    233e:	7b5a      	ldrb	r2, [r3, #13]
    2340:	9207      	str	r2, [sp, #28]
    2342:	7b1a      	ldrb	r2, [r3, #12]
    2344:	9206      	str	r2, [sp, #24]
    2346:	7ada      	ldrb	r2, [r3, #11]
    2348:	9205      	str	r2, [sp, #20]
    234a:	7a9a      	ldrb	r2, [r3, #10]
    234c:	9204      	str	r2, [sp, #16]
    234e:	7a5a      	ldrb	r2, [r3, #9]
    2350:	9203      	str	r2, [sp, #12]
    2352:	7a1a      	ldrb	r2, [r3, #8]
    2354:	9202      	str	r2, [sp, #8]
    2356:	88da      	ldrh	r2, [r3, #6]
    2358:	9201      	str	r2, [sp, #4]
    235a:	889a      	ldrh	r2, [r3, #4]
    235c:	9200      	str	r2, [sp, #0]
    235e:	9a14      	ldr	r2, [sp, #80]	; 0x50
    2360:	681b      	ldr	r3, [r3, #0]
    2362:	f000 f9ea 	bl	273a <snprintk>
    2366:	4604      	mov	r4, r0
kprintf():
/root/devel/optee/optee_os/lib/libutils/ext/snprintk.c:422
    2368:	462b      	mov	r3, r5
    236a:	f8dd c03c 	ldr.w	ip, [sp, #60]	; 0x3c
    236e:	e11a      	b.n	25a6 <__vsnprintf+0x5e2>
/root/devel/optee/optee_os/lib/libutils/ext/snprintk.c:436
    2370:	9b13      	ldr	r3, [sp, #76]	; 0x4c
/root/devel/optee/optee_os/lib/libutils/ext/snprintk.c:434
    2372:	1d17      	adds	r7, r2, #4
    2374:	2500      	movs	r5, #0
    2376:	6814      	ldr	r4, [r2, #0]
/root/devel/optee/optee_os/lib/libutils/ext/snprintk.c:437
    2378:	f046 0602 	orr.w	r6, r6, #2
/root/devel/optee/optee_os/lib/libutils/ext/snprintk.c:481
    237c:	f04f 0900 	mov.w	r9, #0
/root/devel/optee/optee_os/lib/libutils/ext/snprintk.c:438
    2380:	f04f 0a78 	mov.w	sl, #120	; 0x78
/root/devel/optee/optee_os/lib/libutils/ext/snprintk.c:436
    2384:	3311      	adds	r3, #17
    2386:	930d      	str	r3, [sp, #52]	; 0x34
/root/devel/optee/optee_os/lib/libutils/ext/snprintk.c:435
    2388:	2302      	movs	r3, #2
    238a:	e096      	b.n	24ba <__vsnprintf+0x4f6>
/root/devel/optee/optee_os/lib/libutils/ext/snprintk.c:441
    238c:	6813      	ldr	r3, [r2, #0]
    238e:	1d17      	adds	r7, r2, #4
/root/devel/optee/optee_os/lib/libutils/ext/snprintk.c:290
    2390:	465c      	mov	r4, fp
/root/devel/optee/optee_os/lib/libutils/ext/snprintk.c:443
    2392:	9a15      	ldr	r2, [sp, #84]	; 0x54
    2394:	f8cd c05c 	str.w	ip, [sp, #92]	; 0x5c
    2398:	2b00      	cmp	r3, #0
    239a:	bf08      	it	eq
    239c:	4613      	moveq	r3, r2
/root/devel/optee/optee_os/lib/libutils/ext/snprintk.c:444
    239e:	f1bb 0f00 	cmp.w	fp, #0
    23a2:	db10      	blt.n	23c6 <__vsnprintf+0x402>
/root/devel/optee/optee_os/lib/libutils/ext/snprintk.c:450
    23a4:	4618      	mov	r0, r3
    23a6:	465a      	mov	r2, fp
    23a8:	930f      	str	r3, [sp, #60]	; 0x3c
    23aa:	2100      	movs	r1, #0
    23ac:	f001 f9be 	bl	372c <memchr>
/root/devel/optee/optee_os/lib/libutils/ext/snprintk.c:452
    23b0:	9b0f      	ldr	r3, [sp, #60]	; 0x3c
    23b2:	f8dd c05c 	ldr.w	ip, [sp, #92]	; 0x5c
    23b6:	2800      	cmp	r0, #0
    23b8:	f000 80f3 	beq.w	25a2 <__vsnprintf+0x5de>
/root/devel/optee/optee_os/lib/libutils/ext/snprintk.c:453
    23bc:	1ac4      	subs	r4, r0, r3
    23be:	455c      	cmp	r4, fp
    23c0:	bfa8      	it	ge
    23c2:	465c      	movge	r4, fp
    23c4:	e0ea      	b.n	259c <__vsnprintf+0x5d8>
/root/devel/optee/optee_os/lib/libutils/ext/snprintk.c:459
    23c6:	4618      	mov	r0, r3
    23c8:	930f      	str	r3, [sp, #60]	; 0x3c
/root/devel/optee/optee_os/lib/libutils/ext/snprintk.c:284
    23ca:	f04f 0b00 	mov.w	fp, #0
/root/devel/optee/optee_os/lib/libutils/ext/snprintk.c:459
    23ce:	f001 f990 	bl	36f2 <strlen>
    23d2:	4604      	mov	r4, r0
/root/devel/optee/optee_os/lib/libutils/ext/snprintk.c:460
    23d4:	46d9      	mov	r9, fp
    23d6:	9b0f      	ldr	r3, [sp, #60]	; 0x3c
    23d8:	f8dd c05c 	ldr.w	ip, [sp, #92]	; 0x5c
    23dc:	e0e3      	b.n	25a6 <__vsnprintf+0x5e2>
/root/devel/optee/optee_os/lib/libutils/ext/snprintk.c:463
    23de:	f046 0610 	orr.w	r6, r6, #16
/root/devel/optee/optee_os/lib/libutils/ext/snprintk.c:466
    23e2:	f016 0980 	ands.w	r9, r6, #128	; 0x80
    23e6:	d00a      	beq.n	23fe <__vsnprintf+0x43a>
    23e8:	3207      	adds	r2, #7
/root/devel/optee/optee_os/lib/libutils/ext/snprintk.c:467
    23ea:	2301      	movs	r3, #1
/root/devel/optee/optee_os/lib/libutils/ext/snprintk.c:466
    23ec:	f022 0207 	bic.w	r2, r2, #7
/root/devel/optee/optee_os/lib/libutils/ext/snprintk.c:481
    23f0:	f04f 0900 	mov.w	r9, #0
/root/devel/optee/optee_os/lib/libutils/ext/snprintk.c:466
    23f4:	f102 0708 	add.w	r7, r2, #8
    23f8:	e9d2 4500 	ldrd	r4, r5, [r2]
    23fc:	e05d      	b.n	24ba <__vsnprintf+0x4f6>
    23fe:	f416 7080 	ands.w	r0, r6, #256	; 0x100
    2402:	d001      	beq.n	2408 <__vsnprintf+0x444>
    2404:	1d17      	adds	r7, r2, #4
    2406:	e021      	b.n	244c <__vsnprintf+0x488>
    2408:	f416 7100 	ands.w	r1, r6, #512	; 0x200
    240c:	d001      	beq.n	2412 <__vsnprintf+0x44e>
    240e:	1d17      	adds	r7, r2, #4
    2410:	e00f      	b.n	2432 <__vsnprintf+0x46e>
    2412:	f016 0020 	ands.w	r0, r6, #32
    2416:	d007      	beq.n	2428 <__vsnprintf+0x464>
    2418:	3207      	adds	r2, #7
    241a:	f022 0207 	bic.w	r2, r2, #7
    241e:	f102 0708 	add.w	r7, r2, #8
    2422:	e9d2 4500 	ldrd	r4, r5, [r2]
    2426:	e00e      	b.n	2446 <__vsnprintf+0x482>
    2428:	f016 0110 	ands.w	r1, r6, #16
    242c:	f102 0704 	add.w	r7, r2, #4
    2430:	d004      	beq.n	243c <__vsnprintf+0x478>
    2432:	6814      	ldr	r4, [r2, #0]
    2434:	2500      	movs	r5, #0
/root/devel/optee/optee_os/lib/libutils/ext/snprintk.c:467
    2436:	2301      	movs	r3, #1
/root/devel/optee/optee_os/lib/libutils/ext/snprintk.c:481
    2438:	4681      	mov	r9, r0
    243a:	e03e      	b.n	24ba <__vsnprintf+0x4f6>
/root/devel/optee/optee_os/lib/libutils/ext/snprintk.c:466
    243c:	f016 0940 	ands.w	r9, r6, #64	; 0x40
    2440:	d004      	beq.n	244c <__vsnprintf+0x488>
    2442:	8814      	ldrh	r4, [r2, #0]
    2444:	2500      	movs	r5, #0
/root/devel/optee/optee_os/lib/libutils/ext/snprintk.c:467
    2446:	2301      	movs	r3, #1
/root/devel/optee/optee_os/lib/libutils/ext/snprintk.c:481
    2448:	4689      	mov	r9, r1
    244a:	e036      	b.n	24ba <__vsnprintf+0x4f6>
/root/devel/optee/optee_os/lib/libutils/ext/snprintk.c:466
    244c:	6814      	ldr	r4, [r2, #0]
    244e:	2500      	movs	r5, #0
    2450:	e030      	b.n	24b4 <__vsnprintf+0x4f0>
/root/devel/optee/optee_os/lib/libutils/ext/snprintk.c:473
    2452:	9b12      	ldr	r3, [sp, #72]	; 0x48
    2454:	3311      	adds	r3, #17
    2456:	e000      	b.n	245a <__vsnprintf+0x496>
/root/devel/optee/optee_os/lib/libutils/ext/snprintk.c:470
    2458:	9b16      	ldr	r3, [sp, #88]	; 0x58
/root/devel/optee/optee_os/lib/libutils/ext/snprintk.c:474
    245a:	0631      	lsls	r1, r6, #24
/root/devel/optee/optee_os/lib/libutils/ext/snprintk.c:470
    245c:	930d      	str	r3, [sp, #52]	; 0x34
/root/devel/optee/optee_os/lib/libutils/ext/snprintk.c:474
    245e:	d407      	bmi.n	2470 <__vsnprintf+0x4ac>
    2460:	05f3      	lsls	r3, r6, #23
    2462:	d401      	bmi.n	2468 <__vsnprintf+0x4a4>
    2464:	05b7      	lsls	r7, r6, #22
    2466:	d501      	bpl.n	246c <__vsnprintf+0x4a8>
    2468:	1d17      	adds	r7, r2, #4
    246a:	e012      	b.n	2492 <__vsnprintf+0x4ce>
    246c:	06b5      	lsls	r5, r6, #26
    246e:	d507      	bpl.n	2480 <__vsnprintf+0x4bc>
    2470:	3207      	adds	r2, #7
    2472:	f022 0207 	bic.w	r2, r2, #7
    2476:	f102 0708 	add.w	r7, r2, #8
    247a:	e9d2 4500 	ldrd	r4, r5, [r2]
    247e:	e00a      	b.n	2496 <__vsnprintf+0x4d2>
    2480:	f016 0f10 	tst.w	r6, #16
    2484:	f102 0704 	add.w	r7, r2, #4
    2488:	d103      	bne.n	2492 <__vsnprintf+0x4ce>
    248a:	0674      	lsls	r4, r6, #25
    248c:	d501      	bpl.n	2492 <__vsnprintf+0x4ce>
    248e:	8814      	ldrh	r4, [r2, #0]
    2490:	e000      	b.n	2494 <__vsnprintf+0x4d0>
    2492:	6814      	ldr	r4, [r2, #0]
    2494:	2500      	movs	r5, #0
/root/devel/optee/optee_os/lib/libutils/ext/snprintk.c:477
    2496:	f016 0901 	ands.w	r9, r6, #1
    249a:	d00d      	beq.n	24b8 <__vsnprintf+0x4f4>
    249c:	ea54 0305 	orrs.w	r3, r4, r5
    24a0:	f000 812e 	beq.w	2700 <__vsnprintf+0x73c>
/root/devel/optee/optee_os/lib/libutils/ext/snprintk.c:487
    24a4:	f1bb 0f00 	cmp.w	fp, #0
/root/devel/optee/optee_os/lib/libutils/ext/snprintk.c:478
    24a8:	f046 0602 	orr.w	r6, r6, #2
/root/devel/optee/optee_os/lib/libutils/ext/snprintk.c:481
    24ac:	f04f 0900 	mov.w	r9, #0
/root/devel/optee/optee_os/lib/libutils/ext/snprintk.c:487
    24b0:	da07      	bge.n	24c2 <__vsnprintf+0x4fe>
    24b2:	e055      	b.n	2560 <__vsnprintf+0x59c>
/root/devel/optee/optee_os/lib/libutils/ext/snprintk.c:388
    24b4:	2301      	movs	r3, #1
    24b6:	e000      	b.n	24ba <__vsnprintf+0x4f6>
/root/devel/optee/optee_os/lib/libutils/ext/snprintk.c:475
    24b8:	2302      	movs	r3, #2
/root/devel/optee/optee_os/lib/libutils/ext/snprintk.c:487
    24ba:	f1bb 0f00 	cmp.w	fp, #0
    24be:	da01      	bge.n	24c4 <__vsnprintf+0x500>
    24c0:	e002      	b.n	24c8 <__vsnprintf+0x504>
/root/devel/optee/optee_os/lib/libutils/ext/snprintk.c:475
    24c2:	2302      	movs	r3, #2
/root/devel/optee/optee_os/lib/libutils/ext/snprintk.c:488
    24c4:	f426 6680 	bic.w	r6, r6, #1024	; 0x400
/root/devel/optee/optee_os/lib/libutils/ext/snprintk.c:496
    24c8:	ea54 0205 	orrs.w	r2, r4, r5
    24cc:	d104      	bne.n	24d8 <__vsnprintf+0x514>
    24ce:	f1bb 0f00 	cmp.w	fp, #0
    24d2:	d056      	beq.n	2582 <__vsnprintf+0x5be>
    24d4:	2400      	movs	r4, #0
    24d6:	2500      	movs	r5, #0
/root/devel/optee/optee_os/lib/libutils/ext/snprintk.c:502
    24d8:	2b01      	cmp	r3, #1
    24da:	d003      	beq.n	24e4 <__vsnprintf+0x520>
    24dc:	2b02      	cmp	r3, #2
    24de:	d03f      	beq.n	2560 <__vsnprintf+0x59c>
    24e0:	ab22      	add	r3, sp, #136	; 0x88
    24e2:	e002      	b.n	24ea <__vsnprintf+0x526>
    24e4:	ab22      	add	r3, sp, #136	; 0x88
    24e6:	930f      	str	r3, [sp, #60]	; 0x3c
    24e8:	e017      	b.n	251a <__vsnprintf+0x556>
/root/devel/optee/optee_os/lib/libutils/ext/snprintk.c:506
    24ea:	08e1      	lsrs	r1, r4, #3
    24ec:	08e8      	lsrs	r0, r5, #3
    24ee:	ea41 7145 	orr.w	r1, r1, r5, lsl #29
/root/devel/optee/optee_os/lib/libutils/ext/snprintk.c:505
    24f2:	f004 0207 	and.w	r2, r4, #7
/root/devel/optee/optee_os/lib/libutils/ext/snprintk.c:506
    24f6:	4605      	mov	r5, r0
    24f8:	460c      	mov	r4, r1
/root/devel/optee/optee_os/lib/libutils/ext/snprintk.c:505
    24fa:	3230      	adds	r2, #48	; 0x30
/root/devel/optee/optee_os/lib/libutils/ext/snprintk.c:507
    24fc:	ea54 0105 	orrs.w	r1, r4, r5
/root/devel/optee/optee_os/lib/libutils/ext/snprintk.c:505
    2500:	f803 2d01 	strb.w	r2, [r3, #-1]!
/root/devel/optee/optee_os/lib/libutils/ext/snprintk.c:507
    2504:	d1f1      	bne.n	24ea <__vsnprintf+0x526>
/root/devel/optee/optee_os/lib/libutils/ext/snprintk.c:509
    2506:	07f0      	lsls	r0, r6, #31
/root/devel/optee/optee_os/lib/libutils/ext/snprintk.c:507
    2508:	4619      	mov	r1, r3
/root/devel/optee/optee_os/lib/libutils/ext/snprintk.c:509
    250a:	d53b      	bpl.n	2584 <__vsnprintf+0x5c0>
    250c:	2a30      	cmp	r2, #48	; 0x30
    250e:	d039      	beq.n	2584 <__vsnprintf+0x5c0>
/root/devel/optee/optee_os/lib/libutils/ext/snprintk.c:510
    2510:	2230      	movs	r2, #48	; 0x30
    2512:	3b01      	subs	r3, #1
    2514:	f801 2c01 	strb.w	r2, [r1, #-1]
    2518:	e034      	b.n	2584 <__vsnprintf+0x5c0>
    251a:	9b0f      	ldr	r3, [sp, #60]	; 0x3c
/root/devel/optee/optee_os/lib/libutils/ext/snprintk.c:515
    251c:	2d00      	cmp	r5, #0
    251e:	bf08      	it	eq
    2520:	2c0a      	cmpeq	r4, #10
    2522:	f103 33ff 	add.w	r3, r3, #4294967295
    2526:	d316      	bcc.n	2556 <__vsnprintf+0x592>
/root/devel/optee/optee_os/lib/libutils/ext/snprintk.c:516
    2528:	930f      	str	r3, [sp, #60]	; 0x3c
    252a:	4620      	mov	r0, r4
    252c:	4629      	mov	r1, r5
    252e:	220a      	movs	r2, #10
    2530:	2300      	movs	r3, #0
    2532:	f8cd c05c 	str.w	ip, [sp, #92]	; 0x5c
    2536:	f000 ea7e 	blx	2a34 <__aeabi_uldivmod>
    253a:	9b0f      	ldr	r3, [sp, #60]	; 0x3c
    253c:	3230      	adds	r2, #48	; 0x30
/root/devel/optee/optee_os/lib/libutils/ext/snprintk.c:517
    253e:	4620      	mov	r0, r4
    2540:	4629      	mov	r1, r5
/root/devel/optee/optee_os/lib/libutils/ext/snprintk.c:516
    2542:	701a      	strb	r2, [r3, #0]
/root/devel/optee/optee_os/lib/libutils/ext/snprintk.c:517
    2544:	220a      	movs	r2, #10
    2546:	2300      	movs	r3, #0
    2548:	f000 ea74 	blx	2a34 <__aeabi_uldivmod>
    254c:	4604      	mov	r4, r0
    254e:	460d      	mov	r5, r1
    2550:	f8dd c05c 	ldr.w	ip, [sp, #92]	; 0x5c
    2554:	e7e1      	b.n	251a <__vsnprintf+0x556>
/root/devel/optee/optee_os/lib/libutils/ext/snprintk.c:519
    2556:	9a0f      	ldr	r2, [sp, #60]	; 0x3c
    2558:	3430      	adds	r4, #48	; 0x30
    255a:	f802 4c01 	strb.w	r4, [r2, #-1]
    255e:	e011      	b.n	2584 <__vsnprintf+0x5c0>
/root/devel/optee/optee_os/lib/libutils/ext/snprintk.c:481
    2560:	ab22      	add	r3, sp, #136	; 0x88
/root/devel/optee/optee_os/lib/libutils/ext/snprintk.c:524
    2562:	990d      	ldr	r1, [sp, #52]	; 0x34
    2564:	f004 020f 	and.w	r2, r4, #15
    2568:	5c8a      	ldrb	r2, [r1, r2]
/root/devel/optee/optee_os/lib/libutils/ext/snprintk.c:525
    256a:	0929      	lsrs	r1, r5, #4
/root/devel/optee/optee_os/lib/libutils/ext/snprintk.c:524
    256c:	f803 2d01 	strb.w	r2, [r3, #-1]!
/root/devel/optee/optee_os/lib/libutils/ext/snprintk.c:525
    2570:	0922      	lsrs	r2, r4, #4
    2572:	ea42 7205 	orr.w	r2, r2, r5, lsl #28
    2576:	460d      	mov	r5, r1
    2578:	4614      	mov	r4, r2
/root/devel/optee/optee_os/lib/libutils/ext/snprintk.c:526
    257a:	ea54 0205 	orrs.w	r2, r4, r5
    257e:	d1f0      	bne.n	2562 <__vsnprintf+0x59e>
    2580:	e000      	b.n	2584 <__vsnprintf+0x5c0>
/root/devel/optee/optee_os/lib/libutils/ext/snprintk.c:495
    2582:	ab22      	add	r3, sp, #136	; 0x88
/root/devel/optee/optee_os/lib/libutils/ext/snprintk.c:536
    2584:	aa22      	add	r2, sp, #136	; 0x88
    2586:	1ad4      	subs	r4, r2, r3
    2588:	e00d      	b.n	25a6 <__vsnprintf+0x5e2>
/root/devel/optee/optee_os/lib/libutils/ext/snprintk.c:540
    258a:	f1ba 0f00 	cmp.w	sl, #0
    258e:	f000 80a5 	beq.w	26dc <__vsnprintf+0x718>
/root/devel/optee/optee_os/lib/libutils/ext/snprintk.c:544
    2592:	ab22      	add	r3, sp, #136	; 0x88
    2594:	4617      	mov	r7, r2
    2596:	f803 ad24 	strb.w	sl, [r3, #-36]!
/root/devel/optee/optee_os/lib/libutils/ext/snprintk.c:545
    259a:	2401      	movs	r4, #1
/root/devel/optee/optee_os/lib/libutils/ext/snprintk.c:284
    259c:	f04f 0b00 	mov.w	fp, #0
    25a0:	e000      	b.n	25a4 <__vsnprintf+0x5e0>
    25a2:	4683      	mov	fp, r0
/root/devel/optee/optee_os/lib/libutils/ext/snprintk.c:460
    25a4:	46d9      	mov	r9, fp
/root/devel/optee/optee_os/lib/libutils/ext/snprintk.c:564
    25a6:	45a3      	cmp	fp, r4
    25a8:	4659      	mov	r1, fp
    25aa:	bfb8      	it	lt
    25ac:	4621      	movlt	r1, r4
/root/devel/optee/optee_os/lib/libutils/ext/snprintk.c:565
    25ae:	f1b9 0f00 	cmp.w	r9, #0
    25b2:	d001      	beq.n	25b8 <__vsnprintf+0x5f4>
/root/devel/optee/optee_os/lib/libutils/ext/snprintk.c:566
    25b4:	3101      	adds	r1, #1
    25b6:	e002      	b.n	25be <__vsnprintf+0x5fa>
/root/devel/optee/optee_os/lib/libutils/ext/snprintk.c:567
    25b8:	07b5      	lsls	r5, r6, #30
/root/devel/optee/optee_os/lib/libutils/ext/snprintk.c:568
    25ba:	bf48      	it	mi
    25bc:	3102      	addmi	r1, #2
/root/devel/optee/optee_os/lib/libutils/ext/snprintk.c:571
    25be:	9a0a      	ldr	r2, [sp, #40]	; 0x28
    25c0:	980b      	ldr	r0, [sp, #44]	; 0x2c
    25c2:	4281      	cmp	r1, r0
    25c4:	bfac      	ite	ge
    25c6:	1852      	addge	r2, r2, r1
    25c8:	1812      	addlt	r2, r2, r0
    25ca:	920a      	str	r2, [sp, #40]	; 0x28
/root/devel/optee/optee_os/lib/libutils/ext/snprintk.c:574
    25cc:	f240 4204 	movw	r2, #1028	; 0x404
    25d0:	4032      	ands	r2, r6
    25d2:	b982      	cbnz	r2, 25f6 <__vsnprintf+0x632>
/root/devel/optee/optee_os/lib/libutils/ext/snprintk.c:575
    25d4:	1a40      	subs	r0, r0, r1
/root/devel/optee/optee_os/lib/libutils/ext/snprintk.c:577
    25d6:	f04f 0e20 	mov.w	lr, #32
/root/devel/optee/optee_os/lib/libutils/ext/snprintk.c:576
    25da:	2800      	cmp	r0, #0
    25dc:	dd0b      	ble.n	25f6 <__vsnprintf+0x632>
/root/devel/optee/optee_os/lib/libutils/ext/snprintk.c:577
    25de:	f1b8 0f00 	cmp.w	r8, #0
    25e2:	d006      	beq.n	25f2 <__vsnprintf+0x62e>
    25e4:	9d0c      	ldr	r5, [sp, #48]	; 0x30
    25e6:	45a8      	cmp	r8, r5
    25e8:	bf3c      	itt	cc
    25ea:	f888 e000 	strbcc.w	lr, [r8]
    25ee:	f108 0801 	addcc.w	r8, r8, #1
    25f2:	3801      	subs	r0, #1
    25f4:	e7f1      	b.n	25da <__vsnprintf+0x616>
/root/devel/optee/optee_os/lib/libutils/ext/snprintk.c:581
    25f6:	f1b9 0f00 	cmp.w	r9, #0
