Archive member included because of file (symbol)

/root/devel/optee/optee_os/out/arm/export-ta_arm32/lib/libutee.a(user_ta_entry.o)
                              ./user_ta_header.o (__utee_entry)
/root/devel/optee/optee_os/out/arm/export-ta_arm32/lib/libutee.a(utee_syscalls_a32.o)
                              /root/devel/optee/optee_os/out/arm/export-ta_arm32/lib/libutee.a(user_ta_entry.o) (utee_return)
/root/devel/optee/optee_os/out/arm/export-ta_arm32/lib/libutee.a(tee_api_arith.o)
                              /root/devel/optee/optee_os/out/arm/export-ta_arm32/lib/libutee.a(user_ta_entry.o) (_TEE_MathAPI_Init)
/root/devel/optee/optee_os/out/arm/export-ta_arm32/lib/libutee.a(tee_api.o)
                              /root/devel/optee/optee_os/out/arm/export-ta_arm32/lib/libutee.a(user_ta_entry.o) (__utee_from_param)
/root/devel/optee/optee_os/out/arm/export-ta_arm32/lib/libutee.a(tee_api_panic.o)
                              /root/devel/optee/optee_os/out/arm/export-ta_arm32/lib/libutee.a(user_ta_entry.o) (__TEE_Panic)
/root/devel/optee/optee_os/out/arm/export-ta_arm32/lib/libutee.a(utee_misc.o)
                              /root/devel/optee/optee_os/out/arm/export-ta_arm32/lib/libutee.a(tee_api_arith.o) (get_rng_array)
/root/devel/optee/optee_os/out/arm/export-ta_arm32/lib/libutee.a(tee_user_mem.o)
                              /root/devel/optee/optee_os/out/arm/export-ta_arm32/lib/libutee.a(tee_api.o) (tee_user_mem_alloc)
/root/devel/optee/optee_os/out/arm/export-ta_arm32/lib/libutee.a(trace_ext.o)
                              /root/devel/optee/optee_os/out/arm/export-ta_arm32/lib/libutee.a(tee_api_arith.o) (printf)
/root/devel/optee/optee_os/out/arm/export-ta_arm32/lib/libutee.a(assert.o)
                              /root/devel/optee/optee_os/out/arm/export-ta_arm32/lib/libutee.a(tee_user_mem.o) (_assert_log)
/root/devel/optee/optee_os/out/arm/export-ta_arm32/lib/libutils.a(bget_malloc.o)
                              /root/devel/optee/optee_os/out/arm/export-ta_arm32/lib/libutee.a(utee_misc.o) (malloc)
/root/devel/optee/optee_os/out/arm/export-ta_arm32/lib/libutils.a(snprintf.o)
                              /root/devel/optee/optee_os/out/arm/export-ta_arm32/lib/libutee.a(trace_ext.o) (vsnprintf)
/root/devel/optee/optee_os/out/arm/export-ta_arm32/lib/libutils.a(memcmp.o)
                              /root/devel/optee/optee_os/out/arm/export-ta_arm32/lib/libutee.a(tee_api.o) (memcmp)
/root/devel/optee/optee_os/out/arm/export-ta_arm32/lib/libutils.a(memcpy.o)
                              /root/devel/optee/optee_os/out/arm/export-ta_arm32/lib/libutee.a(tee_user_mem.o) (memcpy)
/root/devel/optee/optee_os/out/arm/export-ta_arm32/lib/libutils.a(memmove.o)
                              /root/devel/optee/optee_os/out/arm/export-ta_arm32/lib/libutee.a(tee_api.o) (memmove)
/root/devel/optee/optee_os/out/arm/export-ta_arm32/lib/libutils.a(memset.o)
                              /root/devel/optee/optee_os/out/arm/export-ta_arm32/lib/libutee.a(user_ta_entry.o) (memset)
/root/devel/optee/optee_os/out/arm/export-ta_arm32/lib/libutils.a(strlen.o)
                              /root/devel/optee/optee_os/out/arm/export-ta_arm32/lib/libutee.a(trace_ext.o) (strlen)
/root/devel/optee/optee_os/out/arm/export-ta_arm32/lib/libutils.a(snprintk.o)
                              /root/devel/optee/optee_os/out/arm/export-ta_arm32/lib/libutils.a(snprintf.o) (__vsnprintf)
/root/devel/optee/optee_os/out/arm/export-ta_arm32/lib/libutils.a(strlcpy.o)
                              /root/devel/optee/optee_os/out/arm/export-ta_arm32/lib/libutee.a(trace_ext.o) (strlcpy)
/root/devel/optee/optee_os/out/arm/export-ta_arm32/lib/libutils.a(trace.o)
                              /root/devel/optee/optee_os/out/arm/export-ta_arm32/lib/libutee.a(user_ta_entry.o) (trace_set_level)
/root/devel/optee/optee_os/out/arm/export-ta_arm32/lib/libutils.a(memchr.o)
                              /root/devel/optee/optee_os/out/arm/export-ta_arm32/lib/libutils.a(snprintk.o) (memchr)
/root/devel/optee/optee_os/out/arm/export-ta_arm32/lib/libutils.a(arm32_aeabi_ldivmod_a32.o)
                              /root/devel/optee/optee_os/out/arm/export-ta_arm32/lib/libutils.a(snprintk.o) (__aeabi_uldivmod)
/root/devel/optee/optee_os/out/arm/export-ta_arm32/lib/libutils.a(arm32_aeabi_ldivmod.o)
                              /root/devel/optee/optee_os/out/arm/export-ta_arm32/lib/libutils.a(arm32_aeabi_ldivmod_a32.o) (__ul_divmod)
/root/devel/optee/optee_os/out/arm/export-ta_arm32/lib/libmpa.a(mpa_misc.o)
                              /root/devel/optee/optee_os/out/arm/export-ta_arm32/lib/libutee.a(tee_api_arith.o) (mpa_copy)
/root/devel/optee/optee_os/out/arm/export-ta_arm32/lib/libmpa.a(mpa_montgomery.o)
                              /root/devel/optee/optee_os/out/arm/export-ta_arm32/lib/libutee.a(tee_api_arith.o) (mpa_compute_fmm_context)
/root/devel/optee/optee_os/out/arm/export-ta_arm32/lib/libmpa.a(mpa_primetest.o)
                              /root/devel/optee/optee_os/out/arm/export-ta_arm32/lib/libutee.a(tee_api_arith.o) (mpa_is_prob_prime)
/root/devel/optee/optee_os/out/arm/export-ta_arm32/lib/libmpa.a(mpa_conv.o)
                              /root/devel/optee/optee_os/out/arm/export-ta_arm32/lib/libutee.a(tee_api_arith.o) (mpa_set_S32)
/root/devel/optee/optee_os/out/arm/export-ta_arm32/lib/libmpa.a(mpa_div.o)
                              /root/devel/optee/optee_os/out/arm/export-ta_arm32/lib/libutee.a(tee_api_arith.o) (mpa_div)
/root/devel/optee/optee_os/out/arm/export-ta_arm32/lib/libmpa.a(mpa_gcd.o)
                              /root/devel/optee/optee_os/out/arm/export-ta_arm32/lib/libutee.a(tee_api_arith.o) (mpa_gcd)
/root/devel/optee/optee_os/out/arm/export-ta_arm32/lib/libmpa.a(mpa_mem_static.o)
                              /root/devel/optee/optee_os/out/arm/export-ta_arm32/lib/libutee.a(tee_api_arith.o) (mpa_init_scratch_mem)
/root/devel/optee/optee_os/out/arm/export-ta_arm32/lib/libmpa.a(mpa_mul.o)
                              /root/devel/optee/optee_os/out/arm/export-ta_arm32/lib/libmpa.a(mpa_div.o) (__mpa_mul_add_word)
/root/devel/optee/optee_os/out/arm/export-ta_arm32/lib/libmpa.a(mpa_random.o)
                              /root/devel/optee/optee_os/out/arm/export-ta_arm32/lib/libutee.a(tee_api_arith.o) (mpa_set_random_generator)
/root/devel/optee/optee_os/out/arm/export-ta_arm32/lib/libmpa.a(mpa_shift.o)
                              /root/devel/optee/optee_os/out/arm/export-ta_arm32/lib/libmpa.a(mpa_div.o) (__mpa_shift_words_left)
/root/devel/optee/optee_os/out/arm/export-ta_arm32/lib/libmpa.a(mpa_addsub.o)
                              /root/devel/optee/optee_os/out/arm/export-ta_arm32/lib/libmpa.a(mpa_div.o) (__mpa_full_adder)
/root/devel/optee/optee_os/out/arm/export-ta_arm32/lib/libmpa.a(mpa_cmp.o)
                              /root/devel/optee/optee_os/out/arm/export-ta_arm32/lib/libmpa.a(mpa_montgomery.o) (__mpa_abs_cmp)
/root/devel/optee/optee_os/out/arm/export-ta_arm32/lib/libmpa.a(mpa_expmod.o)
                              /root/devel/optee/optee_os/out/arm/export-ta_arm32/lib/libmpa.a(mpa_primetest.o) (mpa_exp_mod)
/root/devel/optee/optee_os/out/arm/export-ta_arm32/lib/libmpa.a(mpa_init.o)
                              /root/devel/optee/optee_os/out/arm/export-ta_arm32/lib/libutee.a(tee_api_arith.o) (mpa_init_static)
/root/devel/optee/optee_os/out/arm/export-ta_arm32/lib/libmpa.a(mpa_io.o)
                              /root/devel/optee/optee_os/out/arm/export-ta_arm32/lib/libutee.a(tee_api_arith.o) (mpa_set_oct_str)
/root/devel/optee/optee_os/out/arm/export-ta_arm32/lib/libmpa.a(mpa_modulus.o)
                              /root/devel/optee/optee_os/out/arm/export-ta_arm32/lib/libutee.a(tee_api_arith.o) (mpa_mod)

Discarded input sections

 .group         0x00000000        0x8 ./hello_world_ta.o
 .group         0x00000000        0x8 ./hello_world_ta.o
 .group         0x00000000        0x8 ./hello_world_ta.o
 .group         0x00000000        0x8 ./hello_world_ta.o
 .group         0x00000000        0x8 ./hello_world_ta.o
 .group         0x00000000        0x8 ./hello_world_ta.o
 .group         0x00000000        0x8 ./hello_world_ta.o
 .group         0x00000000        0x8 ./hello_world_ta.o
 .group         0x00000000        0x8 ./hello_world_ta.o
 .group         0x00000000        0x8 ./hello_world_ta.o
 .group         0x00000000        0x8 ./hello_world_ta.o
 .group         0x00000000        0x8 ./hello_world_ta.o
 .group         0x00000000        0x8 ./hello_world_ta.o
 .group         0x00000000        0x8 ./user_ta_header.o
 .group         0x00000000        0x8 ./user_ta_header.o
 .group         0x00000000        0x8 ./user_ta_header.o
 .group         0x00000000        0x8 ./user_ta_header.o
 .group         0x00000000        0x8 ./user_ta_header.o
 .group         0x00000000        0x8 ./user_ta_header.o
 .group         0x00000000        0x8 ./user_ta_header.o
 .group         0x00000000        0x8 ./user_ta_header.o
 .group         0x00000000        0x8 ./user_ta_header.o
 .group         0x00000000        0x8 ./user_ta_header.o
 .group         0x00000000        0x8 ./user_ta_header.o
 .group         0x00000000        0x8 ./user_ta_header.o
 .group         0x00000000        0x8 ./user_ta_header.o
 .debug_macro   0x00000000      0x8c2 ./user_ta_header.o
 .debug_macro   0x00000000       0x8e ./user_ta_header.o
 .debug_macro   0x00000000      0x908 ./user_ta_header.o
 .debug_macro   0x00000000      0x188 ./user_ta_header.o
 .debug_macro   0x00000000       0x22 ./user_ta_header.o
 .debug_macro   0x00000000      0x166 ./user_ta_header.o
 .debug_macro   0x00000000       0x35 ./user_ta_header.o
 .debug_macro   0x00000000       0x34 ./user_ta_header.o
 .debug_macro   0x00000000       0x7b ./user_ta_header.o
 .debug_macro   0x00000000       0x58 ./user_ta_header.o
 .debug_macro   0x00000000       0x16 ./user_ta_header.o
 .group         0x00000000        0x8 /root/devel/optee/optee_os/out/arm/export-ta_arm32/lib/libutee.a(user_ta_entry.o)
 .group         0x00000000        0x8 /root/devel/optee/optee_os/out/arm/export-ta_arm32/lib/libutee.a(user_ta_entry.o)
 .group         0x00000000        0x8 /root/devel/optee/optee_os/out/arm/export-ta_arm32/lib/libutee.a(user_ta_entry.o)
 .group         0x00000000        0x8 /root/devel/optee/optee_os/out/arm/export-ta_arm32/lib/libutee.a(user_ta_entry.o)
 .group         0x00000000        0x8 /root/devel/optee/optee_os/out/arm/export-ta_arm32/lib/libutee.a(user_ta_entry.o)
 .group         0x00000000        0x8 /root/devel/optee/optee_os/out/arm/export-ta_arm32/lib/libutee.a(user_ta_entry.o)
 .group         0x00000000        0x8 /root/devel/optee/optee_os/out/arm/export-ta_arm32/lib/libutee.a(user_ta_entry.o)
 .group         0x00000000        0x8 /root/devel/optee/optee_os/out/arm/export-ta_arm32/lib/libutee.a(user_ta_entry.o)
 .group         0x00000000        0x8 /root/devel/optee/optee_os/out/arm/export-ta_arm32/lib/libutee.a(user_ta_entry.o)
 .group         0x00000000        0x8 /root/devel/optee/optee_os/out/arm/export-ta_arm32/lib/libutee.a(user_ta_entry.o)
 .group         0x00000000        0x8 /root/devel/optee/optee_os/out/arm/export-ta_arm32/lib/libutee.a(user_ta_entry.o)
 .group         0x00000000        0x8 /root/devel/optee/optee_os/out/arm/export-ta_arm32/lib/libutee.a(user_ta_entry.o)
 .group         0x00000000        0x8 /root/devel/optee/optee_os/out/arm/export-ta_arm32/lib/libutee.a(user_ta_entry.o)
 .group         0x00000000        0x8 /root/devel/optee/optee_os/out/arm/export-ta_arm32/lib/libutee.a(user_ta_entry.o)
 .group         0x00000000        0x8 /root/devel/optee/optee_os/out/arm/export-ta_arm32/lib/libutee.a(user_ta_entry.o)
 .group         0x00000000        0x8 /root/devel/optee/optee_os/out/arm/export-ta_arm32/lib/libutee.a(user_ta_entry.o)
 .group         0x00000000        0x8 /root/devel/optee/optee_os/out/arm/export-ta_arm32/lib/libutee.a(user_ta_entry.o)
 .group         0x00000000        0x8 /root/devel/optee/optee_os/out/arm/export-ta_arm32/lib/libutee.a(user_ta_entry.o)
 .group         0x00000000        0x8 /root/devel/optee/optee_os/out/arm/export-ta_arm32/lib/libutee.a(user_ta_entry.o)
 .debug_macro   0x00000000       0x8e /root/devel/optee/optee_os/out/arm/export-ta_arm32/lib/libutee.a(user_ta_entry.o)
 .debug_macro   0x00000000       0x22 /root/devel/optee/optee_os/out/arm/export-ta_arm32/lib/libutee.a(user_ta_entry.o)
 .debug_macro   0x00000000      0x166 /root/devel/optee/optee_os/out/arm/export-ta_arm32/lib/libutee.a(user_ta_entry.o)
 .debug_macro   0x00000000      0x908 /root/devel/optee/optee_os/out/arm/export-ta_arm32/lib/libutee.a(user_ta_entry.o)
 .debug_macro   0x00000000      0x188 /root/devel/optee/optee_os/out/arm/export-ta_arm32/lib/libutee.a(user_ta_entry.o)
 .debug_macro   0x00000000       0x35 /root/devel/optee/optee_os/out/arm/export-ta_arm32/lib/libutee.a(user_ta_entry.o)
 .debug_macro   0x00000000       0x34 /root/devel/optee/optee_os/out/arm/export-ta_arm32/lib/libutee.a(user_ta_entry.o)
 .debug_macro   0x00000000       0x10 /root/devel/optee/optee_os/out/arm/export-ta_arm32/lib/libutee.a(user_ta_entry.o)
 .debug_macro   0x00000000       0x58 /root/devel/optee/optee_os/out/arm/export-ta_arm32/lib/libutee.a(user_ta_entry.o)
 .debug_macro   0x00000000       0x76 /root/devel/optee/optee_os/out/arm/export-ta_arm32/lib/libutee.a(user_ta_entry.o)
 .group         0x00000000        0x8 /root/devel/optee/optee_os/out/arm/export-ta_arm32/lib/libutee.a(tee_api_arith.o)
 .group         0x00000000        0x8 /root/devel/optee/optee_os/out/arm/export-ta_arm32/lib/libutee.a(tee_api_arith.o)
 .group         0x00000000        0x8 /root/devel/optee/optee_os/out/arm/export-ta_arm32/lib/libutee.a(tee_api_arith.o)
 .group         0x00000000        0x8 /root/devel/optee/optee_os/out/arm/export-ta_arm32/lib/libutee.a(tee_api_arith.o)
 .group         0x00000000        0x8 /root/devel/optee/optee_os/out/arm/export-ta_arm32/lib/libutee.a(tee_api_arith.o)
 .group         0x00000000        0x8 /root/devel/optee/optee_os/out/arm/export-ta_arm32/lib/libutee.a(tee_api_arith.o)
 .group         0x00000000        0x8 /root/devel/optee/optee_os/out/arm/export-ta_arm32/lib/libutee.a(tee_api_arith.o)
 .group         0x00000000        0x8 /root/devel/optee/optee_os/out/arm/export-ta_arm32/lib/libutee.a(tee_api_arith.o)
 .group         0x00000000        0x8 /root/devel/optee/optee_os/out/arm/export-ta_arm32/lib/libutee.a(tee_api_arith.o)
 .group         0x00000000        0x8 /root/devel/optee/optee_os/out/arm/export-ta_arm32/lib/libutee.a(tee_api_arith.o)
 .group         0x00000000        0x8 /root/devel/optee/optee_os/out/arm/export-ta_arm32/lib/libutee.a(tee_api_arith.o)
 .group         0x00000000        0x8 /root/devel/optee/optee_os/out/arm/export-ta_arm32/lib/libutee.a(tee_api_arith.o)
 .group         0x00000000        0x8 /root/devel/optee/optee_os/out/arm/export-ta_arm32/lib/libutee.a(tee_api_arith.o)
 .group         0x00000000        0x8 /root/devel/optee/optee_os/out/arm/export-ta_arm32/lib/libutee.a(tee_api_arith.o)
 .group         0x00000000        0x8 /root/devel/optee/optee_os/out/arm/export-ta_arm32/lib/libutee.a(tee_api_arith.o)
 .group         0x00000000        0x8 /root/devel/optee/optee_os/out/arm/export-ta_arm32/lib/libutee.a(tee_api_arith.o)
 .group         0x00000000        0x8 /root/devel/optee/optee_os/out/arm/export-ta_arm32/lib/libutee.a(tee_api_arith.o)
 .group         0x00000000        0x8 /root/devel/optee/optee_os/out/arm/export-ta_arm32/lib/libutee.a(tee_api_arith.o)
 .group         0x00000000        0x8 /root/devel/optee/optee_os/out/arm/export-ta_arm32/lib/libutee.a(tee_api_arith.o)
 .group         0x00000000        0x8 /root/devel/optee/optee_os/out/arm/export-ta_arm32/lib/libutee.a(tee_api_arith.o)
 .debug_macro   0x00000000      0x8bc /root/devel/optee/optee_os/out/arm/export-ta_arm32/lib/libutee.a(tee_api_arith.o)
 .debug_macro   0x00000000      0x1ea /root/devel/optee/optee_os/out/arm/export-ta_arm32/lib/libutee.a(tee_api_arith.o)
 .debug_macro   0x00000000      0x166 /root/devel/optee/optee_os/out/arm/export-ta_arm32/lib/libutee.a(tee_api_arith.o)
 .debug_macro   0x00000000       0x58 /root/devel/optee/optee_os/out/arm/export-ta_arm32/lib/libutee.a(tee_api_arith.o)
 .debug_macro   0x00000000       0x8e /root/devel/optee/optee_os/out/arm/export-ta_arm32/lib/libutee.a(tee_api_arith.o)
 .debug_macro   0x00000000      0x908 /root/devel/optee/optee_os/out/arm/export-ta_arm32/lib/libutee.a(tee_api_arith.o)
 .debug_macro   0x00000000      0x188 /root/devel/optee/optee_os/out/arm/export-ta_arm32/lib/libutee.a(tee_api_arith.o)
 .debug_macro   0x00000000       0x22 /root/devel/optee/optee_os/out/arm/export-ta_arm32/lib/libutee.a(tee_api_arith.o)
 .debug_macro   0x00000000       0x35 /root/devel/optee/optee_os/out/arm/export-ta_arm32/lib/libutee.a(tee_api_arith.o)
 .debug_macro   0x00000000       0x34 /root/devel/optee/optee_os/out/arm/export-ta_arm32/lib/libutee.a(tee_api_arith.o)
 .debug_macro   0x00000000       0x7b /root/devel/optee/optee_os/out/arm/export-ta_arm32/lib/libutee.a(tee_api_arith.o)
 .debug_macro   0x00000000       0x3a /root/devel/optee/optee_os/out/arm/export-ta_arm32/lib/libutee.a(tee_api_arith.o)
 .debug_macro   0x00000000       0x7c /root/devel/optee/optee_os/out/arm/export-ta_arm32/lib/libutee.a(tee_api_arith.o)
 .debug_macro   0x00000000       0xca /root/devel/optee/optee_os/out/arm/export-ta_arm32/lib/libutee.a(tee_api_arith.o)
 .debug_macro   0x00000000       0x10 /root/devel/optee/optee_os/out/arm/export-ta_arm32/lib/libutee.a(tee_api_arith.o)
 .debug_macro   0x00000000       0x10 /root/devel/optee/optee_os/out/arm/export-ta_arm32/lib/libutee.a(tee_api_arith.o)
 .group         0x00000000        0x8 /root/devel/optee/optee_os/out/arm/export-ta_arm32/lib/libutee.a(tee_api.o)
 .group         0x00000000        0x8 /root/devel/optee/optee_os/out/arm/export-ta_arm32/lib/libutee.a(tee_api.o)
 .group         0x00000000        0x8 /root/devel/optee/optee_os/out/arm/export-ta_arm32/lib/libutee.a(tee_api.o)
 .group         0x00000000        0x8 /root/devel/optee/optee_os/out/arm/export-ta_arm32/lib/libutee.a(tee_api.o)
 .group         0x00000000        0x8 /root/devel/optee/optee_os/out/arm/export-ta_arm32/lib/libutee.a(tee_api.o)
 .group         0x00000000        0x8 /root/devel/optee/optee_os/out/arm/export-ta_arm32/lib/libutee.a(tee_api.o)
 .group         0x00000000        0x8 /root/devel/optee/optee_os/out/arm/export-ta_arm32/lib/libutee.a(tee_api.o)
 .group         0x00000000        0x8 /root/devel/optee/optee_os/out/arm/export-ta_arm32/lib/libutee.a(tee_api.o)
 .group         0x00000000        0x8 /root/devel/optee/optee_os/out/arm/export-ta_arm32/lib/libutee.a(tee_api.o)
 .group         0x00000000        0x8 /root/devel/optee/optee_os/out/arm/export-ta_arm32/lib/libutee.a(tee_api.o)
 .group         0x00000000        0x8 /root/devel/optee/optee_os/out/arm/export-ta_arm32/lib/libutee.a(tee_api.o)
 .group         0x00000000        0x8 /root/devel/optee/optee_os/out/arm/export-ta_arm32/lib/libutee.a(tee_api.o)
 .group         0x00000000        0x8 /root/devel/optee/optee_os/out/arm/export-ta_arm32/lib/libutee.a(tee_api.o)
 .group         0x00000000        0x8 /root/devel/optee/optee_os/out/arm/export-ta_arm32/lib/libutee.a(tee_api.o)
 .group         0x00000000        0x8 /root/devel/optee/optee_os/out/arm/export-ta_arm32/lib/libutee.a(tee_api.o)
 .group         0x00000000        0x8 /root/devel/optee/optee_os/out/arm/export-ta_arm32/lib/libutee.a(tee_api.o)
 .debug_macro   0x00000000      0x8bc /root/devel/optee/optee_os/out/arm/export-ta_arm32/lib/libutee.a(tee_api.o)
 .debug_macro   0x00000000      0x1ea /root/devel/optee/optee_os/out/arm/export-ta_arm32/lib/libutee.a(tee_api.o)
 .debug_macro   0x00000000       0x8e /root/devel/optee/optee_os/out/arm/export-ta_arm32/lib/libutee.a(tee_api.o)
 .debug_macro   0x00000000      0x166 /root/devel/optee/optee_os/out/arm/export-ta_arm32/lib/libutee.a(tee_api.o)
 .debug_macro   0x00000000       0x7c /root/devel/optee/optee_os/out/arm/export-ta_arm32/lib/libutee.a(tee_api.o)
 .debug_macro   0x00000000      0x188 /root/devel/optee/optee_os/out/arm/export-ta_arm32/lib/libutee.a(tee_api.o)
 .debug_macro   0x00000000       0x22 /root/devel/optee/optee_os/out/arm/export-ta_arm32/lib/libutee.a(tee_api.o)
 .debug_macro   0x00000000       0x10 /root/devel/optee/optee_os/out/arm/export-ta_arm32/lib/libutee.a(tee_api.o)
 .debug_macro   0x00000000       0x10 /root/devel/optee/optee_os/out/arm/export-ta_arm32/lib/libutee.a(tee_api.o)
 .debug_macro   0x00000000      0x908 /root/devel/optee/optee_os/out/arm/export-ta_arm32/lib/libutee.a(tee_api.o)
 .debug_macro   0x00000000       0x35 /root/devel/optee/optee_os/out/arm/export-ta_arm32/lib/libutee.a(tee_api.o)
 .debug_macro   0x00000000       0x34 /root/devel/optee/optee_os/out/arm/export-ta_arm32/lib/libutee.a(tee_api.o)
 .debug_macro   0x00000000       0x7b /root/devel/optee/optee_os/out/arm/export-ta_arm32/lib/libutee.a(tee_api.o)
 .debug_macro   0x00000000       0x76 /root/devel/optee/optee_os/out/arm/export-ta_arm32/lib/libutee.a(tee_api.o)
 .debug_macro   0x00000000       0x58 /root/devel/optee/optee_os/out/arm/export-ta_arm32/lib/libutee.a(tee_api.o)
 .group         0x00000000        0x8 /root/devel/optee/optee_os/out/arm/export-ta_arm32/lib/libutee.a(tee_api_panic.o)
 .group         0x00000000        0x8 /root/devel/optee/optee_os/out/arm/export-ta_arm32/lib/libutee.a(tee_api_panic.o)
 .group         0x00000000        0x8 /root/devel/optee/optee_os/out/arm/export-ta_arm32/lib/libutee.a(tee_api_panic.o)
 .group         0x00000000        0x8 /root/devel/optee/optee_os/out/arm/export-ta_arm32/lib/libutee.a(tee_api_panic.o)
 .group         0x00000000        0x8 /root/devel/optee/optee_os/out/arm/export-ta_arm32/lib/libutee.a(tee_api_panic.o)
 .group         0x00000000        0x8 /root/devel/optee/optee_os/out/arm/export-ta_arm32/lib/libutee.a(tee_api_panic.o)
 .group         0x00000000        0x8 /root/devel/optee/optee_os/out/arm/export-ta_arm32/lib/libutee.a(tee_api_panic.o)
 .group         0x00000000        0x8 /root/devel/optee/optee_os/out/arm/export-ta_arm32/lib/libutee.a(tee_api_panic.o)
 .group         0x00000000        0x8 /root/devel/optee/optee_os/out/arm/export-ta_arm32/lib/libutee.a(tee_api_panic.o)
 .group         0x00000000        0x8 /root/devel/optee/optee_os/out/arm/export-ta_arm32/lib/libutee.a(tee_api_panic.o)
 .group         0x00000000        0x8 /root/devel/optee/optee_os/out/arm/export-ta_arm32/lib/libutee.a(tee_api_panic.o)
 .debug_macro   0x00000000      0x8bc /root/devel/optee/optee_os/out/arm/export-ta_arm32/lib/libutee.a(tee_api_panic.o)
 .debug_macro   0x00000000      0x1ea /root/devel/optee/optee_os/out/arm/export-ta_arm32/lib/libutee.a(tee_api_panic.o)
 .debug_macro   0x00000000      0x166 /root/devel/optee/optee_os/out/arm/export-ta_arm32/lib/libutee.a(tee_api_panic.o)
 .debug_macro   0x00000000       0x8e /root/devel/optee/optee_os/out/arm/export-ta_arm32/lib/libutee.a(tee_api_panic.o)
 .debug_macro   0x00000000      0x908 /root/devel/optee/optee_os/out/arm/export-ta_arm32/lib/libutee.a(tee_api_panic.o)
 .debug_macro   0x00000000      0x188 /root/devel/optee/optee_os/out/arm/export-ta_arm32/lib/libutee.a(tee_api_panic.o)
 .debug_macro   0x00000000       0x22 /root/devel/optee/optee_os/out/arm/export-ta_arm32/lib/libutee.a(tee_api_panic.o)
 .debug_macro   0x00000000       0x35 /root/devel/optee/optee_os/out/arm/export-ta_arm32/lib/libutee.a(tee_api_panic.o)
 .debug_macro   0x00000000       0x34 /root/devel/optee/optee_os/out/arm/export-ta_arm32/lib/libutee.a(tee_api_panic.o)
 .debug_macro   0x00000000       0x7b /root/devel/optee/optee_os/out/arm/export-ta_arm32/lib/libutee.a(tee_api_panic.o)
 .debug_macro   0x00000000       0xca /root/devel/optee/optee_os/out/arm/export-ta_arm32/lib/libutee.a(tee_api_panic.o)
 .group         0x00000000        0x8 /root/devel/optee/optee_os/out/arm/export-ta_arm32/lib/libutee.a(utee_misc.o)
 .group         0x00000000        0x8 /root/devel/optee/optee_os/out/arm/export-ta_arm32/lib/libutee.a(utee_misc.o)
 .group         0x00000000        0x8 /root/devel/optee/optee_os/out/arm/export-ta_arm32/lib/libutee.a(utee_misc.o)
 .group         0x00000000        0x8 /root/devel/optee/optee_os/out/arm/export-ta_arm32/lib/libutee.a(utee_misc.o)
 .group         0x00000000        0x8 /root/devel/optee/optee_os/out/arm/export-ta_arm32/lib/libutee.a(utee_misc.o)
 .group         0x00000000        0x8 /root/devel/optee/optee_os/out/arm/export-ta_arm32/lib/libutee.a(utee_misc.o)
 .group         0x00000000        0x8 /root/devel/optee/optee_os/out/arm/export-ta_arm32/lib/libutee.a(utee_misc.o)
 .group         0x00000000        0x8 /root/devel/optee/optee_os/out/arm/export-ta_arm32/lib/libutee.a(utee_misc.o)
 .group         0x00000000        0x8 /root/devel/optee/optee_os/out/arm/export-ta_arm32/lib/libutee.a(utee_misc.o)
 .group         0x00000000        0x8 /root/devel/optee/optee_os/out/arm/export-ta_arm32/lib/libutee.a(utee_misc.o)
 .group         0x00000000        0x8 /root/devel/optee/optee_os/out/arm/export-ta_arm32/lib/libutee.a(utee_misc.o)
 .group         0x00000000        0x8 /root/devel/optee/optee_os/out/arm/export-ta_arm32/lib/libutee.a(utee_misc.o)
 .group         0x00000000        0x8 /root/devel/optee/optee_os/out/arm/export-ta_arm32/lib/libutee.a(utee_misc.o)
 .debug_macro   0x00000000      0x8bc /root/devel/optee/optee_os/out/arm/export-ta_arm32/lib/libutee.a(utee_misc.o)
 .debug_macro   0x00000000      0x1ea /root/devel/optee/optee_os/out/arm/export-ta_arm32/lib/libutee.a(utee_misc.o)
 .debug_macro   0x00000000       0x8e /root/devel/optee/optee_os/out/arm/export-ta_arm32/lib/libutee.a(utee_misc.o)
 .debug_macro   0x00000000      0x166 /root/devel/optee/optee_os/out/arm/export-ta_arm32/lib/libutee.a(utee_misc.o)
 .debug_macro   0x00000000       0x7c /root/devel/optee/optee_os/out/arm/export-ta_arm32/lib/libutee.a(utee_misc.o)
 .debug_macro   0x00000000      0x188 /root/devel/optee/optee_os/out/arm/export-ta_arm32/lib/libutee.a(utee_misc.o)
 .debug_macro   0x00000000       0xc4 /root/devel/optee/optee_os/out/arm/export-ta_arm32/lib/libutee.a(utee_misc.o)
 .debug_macro   0x00000000       0x22 /root/devel/optee/optee_os/out/arm/export-ta_arm32/lib/libutee.a(utee_misc.o)
 .debug_macro   0x00000000       0x10 /root/devel/optee/optee_os/out/arm/export-ta_arm32/lib/libutee.a(utee_misc.o)
 .debug_macro   0x00000000      0x908 /root/devel/optee/optee_os/out/arm/export-ta_arm32/lib/libutee.a(utee_misc.o)
 .debug_macro   0x00000000       0x35 /root/devel/optee/optee_os/out/arm/export-ta_arm32/lib/libutee.a(utee_misc.o)
 .debug_macro   0x00000000       0x34 /root/devel/optee/optee_os/out/arm/export-ta_arm32/lib/libutee.a(utee_misc.o)
 .debug_macro   0x00000000       0x7b /root/devel/optee/optee_os/out/arm/export-ta_arm32/lib/libutee.a(utee_misc.o)
 .group         0x00000000        0x8 /root/devel/optee/optee_os/out/arm/export-ta_arm32/lib/libutee.a(tee_user_mem.o)
 .group         0x00000000        0x8 /root/devel/optee/optee_os/out/arm/export-ta_arm32/lib/libutee.a(tee_user_mem.o)
 .group         0x00000000        0x8 /root/devel/optee/optee_os/out/arm/export-ta_arm32/lib/libutee.a(tee_user_mem.o)
 .group         0x00000000        0x8 /root/devel/optee/optee_os/out/arm/export-ta_arm32/lib/libutee.a(tee_user_mem.o)
 .group         0x00000000        0x8 /root/devel/optee/optee_os/out/arm/export-ta_arm32/lib/libutee.a(tee_user_mem.o)
 .group         0x00000000        0x8 /root/devel/optee/optee_os/out/arm/export-ta_arm32/lib/libutee.a(tee_user_mem.o)
 .group         0x00000000        0x8 /root/devel/optee/optee_os/out/arm/export-ta_arm32/lib/libutee.a(tee_user_mem.o)
 .group         0x00000000        0x8 /root/devel/optee/optee_os/out/arm/export-ta_arm32/lib/libutee.a(tee_user_mem.o)
 .group         0x00000000        0x8 /root/devel/optee/optee_os/out/arm/export-ta_arm32/lib/libutee.a(tee_user_mem.o)
 .group         0x00000000        0x8 /root/devel/optee/optee_os/out/arm/export-ta_arm32/lib/libutee.a(tee_user_mem.o)
 .group         0x00000000        0x8 /root/devel/optee/optee_os/out/arm/export-ta_arm32/lib/libutee.a(tee_user_mem.o)
 .group         0x00000000        0x8 /root/devel/optee/optee_os/out/arm/export-ta_arm32/lib/libutee.a(tee_user_mem.o)
 .group         0x00000000        0x8 /root/devel/optee/optee_os/out/arm/export-ta_arm32/lib/libutee.a(tee_user_mem.o)
 .group         0x00000000        0x8 /root/devel/optee/optee_os/out/arm/export-ta_arm32/lib/libutee.a(tee_user_mem.o)
 .group         0x00000000        0x8 /root/devel/optee/optee_os/out/arm/export-ta_arm32/lib/libutee.a(tee_user_mem.o)
 .group         0x00000000        0x8 /root/devel/optee/optee_os/out/arm/export-ta_arm32/lib/libutee.a(tee_user_mem.o)
 .group         0x00000000        0x8 /root/devel/optee/optee_os/out/arm/export-ta_arm32/lib/libutee.a(tee_user_mem.o)
 .group         0x00000000        0x8 /root/devel/optee/optee_os/out/arm/export-ta_arm32/lib/libutee.a(tee_user_mem.o)
 .group         0x00000000        0x8 /root/devel/optee/optee_os/out/arm/export-ta_arm32/lib/libutee.a(tee_user_mem.o)
 .debug_macro   0x00000000      0x8bc /root/devel/optee/optee_os/out/arm/export-ta_arm32/lib/libutee.a(tee_user_mem.o)
 .debug_macro   0x00000000      0x1ea /root/devel/optee/optee_os/out/arm/export-ta_arm32/lib/libutee.a(tee_user_mem.o)
 .debug_macro   0x00000000      0x188 /root/devel/optee/optee_os/out/arm/export-ta_arm32/lib/libutee.a(tee_user_mem.o)
 .debug_macro   0x00000000       0xc4 /root/devel/optee/optee_os/out/arm/export-ta_arm32/lib/libutee.a(tee_user_mem.o)
 .debug_macro   0x00000000      0x166 /root/devel/optee/optee_os/out/arm/export-ta_arm32/lib/libutee.a(tee_user_mem.o)
 .debug_macro   0x00000000       0x10 /root/devel/optee/optee_os/out/arm/export-ta_arm32/lib/libutee.a(tee_user_mem.o)
 .debug_macro   0x00000000       0x8e /root/devel/optee/optee_os/out/arm/export-ta_arm32/lib/libutee.a(tee_user_mem.o)
 .debug_macro   0x00000000       0x7c /root/devel/optee/optee_os/out/arm/export-ta_arm32/lib/libutee.a(tee_user_mem.o)
 .debug_macro   0x00000000       0x22 /root/devel/optee/optee_os/out/arm/export-ta_arm32/lib/libutee.a(tee_user_mem.o)
 .debug_macro   0x00000000       0x10 /root/devel/optee/optee_os/out/arm/export-ta_arm32/lib/libutee.a(tee_user_mem.o)
 .debug_macro   0x00000000      0x2cd /root/devel/optee/optee_os/out/arm/export-ta_arm32/lib/libutee.a(tee_user_mem.o)
 .debug_macro   0x00000000      0x908 /root/devel/optee/optee_os/out/arm/export-ta_arm32/lib/libutee.a(tee_user_mem.o)
 .debug_macro   0x00000000       0x35 /root/devel/optee/optee_os/out/arm/export-ta_arm32/lib/libutee.a(tee_user_mem.o)
 .debug_macro   0x00000000       0x34 /root/devel/optee/optee_os/out/arm/export-ta_arm32/lib/libutee.a(tee_user_mem.o)
 .debug_macro   0x00000000       0x7b /root/devel/optee/optee_os/out/arm/export-ta_arm32/lib/libutee.a(tee_user_mem.o)
 .debug_macro   0x00000000       0x58 /root/devel/optee/optee_os/out/arm/export-ta_arm32/lib/libutee.a(tee_user_mem.o)
 .group         0x00000000        0x8 /root/devel/optee/optee_os/out/arm/export-ta_arm32/lib/libutee.a(trace_ext.o)
 .group         0x00000000        0x8 /root/devel/optee/optee_os/out/arm/export-ta_arm32/lib/libutee.a(trace_ext.o)
 .group         0x00000000        0x8 /root/devel/optee/optee_os/out/arm/export-ta_arm32/lib/libutee.a(trace_ext.o)
 .group         0x00000000        0x8 /root/devel/optee/optee_os/out/arm/export-ta_arm32/lib/libutee.a(trace_ext.o)
 .group         0x00000000        0x8 /root/devel/optee/optee_os/out/arm/export-ta_arm32/lib/libutee.a(trace_ext.o)
 .group         0x00000000        0x8 /root/devel/optee/optee_os/out/arm/export-ta_arm32/lib/libutee.a(trace_ext.o)
 .group         0x00000000        0x8 /root/devel/optee/optee_os/out/arm/export-ta_arm32/lib/libutee.a(trace_ext.o)
 .group         0x00000000        0x8 /root/devel/optee/optee_os/out/arm/export-ta_arm32/lib/libutee.a(trace_ext.o)
 .group         0x00000000        0x8 /root/devel/optee/optee_os/out/arm/export-ta_arm32/lib/libutee.a(trace_ext.o)
 .group         0x00000000        0x8 /root/devel/optee/optee_os/out/arm/export-ta_arm32/lib/libutee.a(trace_ext.o)
 .group         0x00000000        0x8 /root/devel/optee/optee_os/out/arm/export-ta_arm32/lib/libutee.a(trace_ext.o)
 .group         0x00000000        0x8 /root/devel/optee/optee_os/out/arm/export-ta_arm32/lib/libutee.a(trace_ext.o)
 .group         0x00000000        0x8 /root/devel/optee/optee_os/out/arm/export-ta_arm32/lib/libutee.a(trace_ext.o)
 .group         0x00000000        0x8 /root/devel/optee/optee_os/out/arm/export-ta_arm32/lib/libutee.a(trace_ext.o)
 .debug_macro   0x00000000      0x8bc /root/devel/optee/optee_os/out/arm/export-ta_arm32/lib/libutee.a(trace_ext.o)
 .debug_macro   0x00000000      0x1ea /root/devel/optee/optee_os/out/arm/export-ta_arm32/lib/libutee.a(trace_ext.o)
 .debug_macro   0x00000000      0x166 /root/devel/optee/optee_os/out/arm/export-ta_arm32/lib/libutee.a(trace_ext.o)
 .debug_macro   0x00000000       0x58 /root/devel/optee/optee_os/out/arm/export-ta_arm32/lib/libutee.a(trace_ext.o)
 .debug_macro   0x00000000       0x10 /root/devel/optee/optee_os/out/arm/export-ta_arm32/lib/libutee.a(trace_ext.o)
 .debug_macro   0x00000000       0x22 /root/devel/optee/optee_os/out/arm/export-ta_arm32/lib/libutee.a(trace_ext.o)
 .debug_macro   0x00000000       0x8e /root/devel/optee/optee_os/out/arm/export-ta_arm32/lib/libutee.a(trace_ext.o)
 .debug_macro   0x00000000       0x34 /root/devel/optee/optee_os/out/arm/export-ta_arm32/lib/libutee.a(trace_ext.o)
 .debug_macro   0x00000000       0x7b /root/devel/optee/optee_os/out/arm/export-ta_arm32/lib/libutee.a(trace_ext.o)
 .debug_macro   0x00000000       0x46 /root/devel/optee/optee_os/out/arm/export-ta_arm32/lib/libutee.a(trace_ext.o)
 .debug_macro   0x00000000      0x188 /root/devel/optee/optee_os/out/arm/export-ta_arm32/lib/libutee.a(trace_ext.o)
 .debug_macro   0x00000000       0xca /root/devel/optee/optee_os/out/arm/export-ta_arm32/lib/libutee.a(trace_ext.o)
 .debug_macro   0x00000000      0x908 /root/devel/optee/optee_os/out/arm/export-ta_arm32/lib/libutee.a(trace_ext.o)
 .debug_macro   0x00000000       0x35 /root/devel/optee/optee_os/out/arm/export-ta_arm32/lib/libutee.a(trace_ext.o)
 .group         0x00000000        0x8 /root/devel/optee/optee_os/out/arm/export-ta_arm32/lib/libutee.a(assert.o)
 .group         0x00000000        0x8 /root/devel/optee/optee_os/out/arm/export-ta_arm32/lib/libutee.a(assert.o)
 .group         0x00000000        0x8 /root/devel/optee/optee_os/out/arm/export-ta_arm32/lib/libutee.a(assert.o)
 .group         0x00000000        0x8 /root/devel/optee/optee_os/out/arm/export-ta_arm32/lib/libutee.a(assert.o)
 .group         0x00000000        0x8 /root/devel/optee/optee_os/out/arm/export-ta_arm32/lib/libutee.a(assert.o)
 .group         0x00000000        0x8 /root/devel/optee/optee_os/out/arm/export-ta_arm32/lib/libutee.a(assert.o)
 .group         0x00000000        0x8 /root/devel/optee/optee_os/out/arm/export-ta_arm32/lib/libutee.a(assert.o)
 .group         0x00000000        0x8 /root/devel/optee/optee_os/out/arm/export-ta_arm32/lib/libutee.a(assert.o)
 .group         0x00000000        0x8 /root/devel/optee/optee_os/out/arm/export-ta_arm32/lib/libutee.a(assert.o)
 .group         0x00000000        0x8 /root/devel/optee/optee_os/out/arm/export-ta_arm32/lib/libutee.a(assert.o)
 .group         0x00000000        0x8 /root/devel/optee/optee_os/out/arm/export-ta_arm32/lib/libutee.a(assert.o)
 .group         0x00000000        0x8 /root/devel/optee/optee_os/out/arm/export-ta_arm32/lib/libutee.a(assert.o)
 .group         0x00000000        0x8 /root/devel/optee/optee_os/out/arm/export-ta_arm32/lib/libutee.a(assert.o)
 .group         0x00000000        0x8 /root/devel/optee/optee_os/out/arm/export-ta_arm32/lib/libutee.a(assert.o)
 .group         0x00000000        0x8 /root/devel/optee/optee_os/out/arm/export-ta_arm32/lib/libutee.a(assert.o)
 .debug_macro   0x00000000      0x8bc /root/devel/optee/optee_os/out/arm/export-ta_arm32/lib/libutee.a(assert.o)
 .debug_macro   0x00000000      0x1ea /root/devel/optee/optee_os/out/arm/export-ta_arm32/lib/libutee.a(assert.o)
 .debug_macro   0x00000000       0x8e /root/devel/optee/optee_os/out/arm/export-ta_arm32/lib/libutee.a(assert.o)
 .debug_macro   0x00000000      0x166 /root/devel/optee/optee_os/out/arm/export-ta_arm32/lib/libutee.a(assert.o)
 .debug_macro   0x00000000      0x908 /root/devel/optee/optee_os/out/arm/export-ta_arm32/lib/libutee.a(assert.o)
 .debug_macro   0x00000000      0x188 /root/devel/optee/optee_os/out/arm/export-ta_arm32/lib/libutee.a(assert.o)
 .debug_macro   0x00000000       0x22 /root/devel/optee/optee_os/out/arm/export-ta_arm32/lib/libutee.a(assert.o)
 .debug_macro   0x00000000       0x35 /root/devel/optee/optee_os/out/arm/export-ta_arm32/lib/libutee.a(assert.o)
 .debug_macro   0x00000000       0x34 /root/devel/optee/optee_os/out/arm/export-ta_arm32/lib/libutee.a(assert.o)
 .debug_macro   0x00000000       0x7b /root/devel/optee/optee_os/out/arm/export-ta_arm32/lib/libutee.a(assert.o)
 .debug_macro   0x00000000       0x10 /root/devel/optee/optee_os/out/arm/export-ta_arm32/lib/libutee.a(assert.o)
 .debug_macro   0x00000000       0x1c /root/devel/optee/optee_os/out/arm/export-ta_arm32/lib/libutee.a(assert.o)
 .debug_macro   0x00000000       0x58 /root/devel/optee/optee_os/out/arm/export-ta_arm32/lib/libutee.a(assert.o)
 .debug_macro   0x00000000       0xca /root/devel/optee/optee_os/out/arm/export-ta_arm32/lib/libutee.a(assert.o)
 .group         0x00000000        0x8 /root/devel/optee/optee_os/out/arm/export-ta_arm32/lib/libutils.a(bget_malloc.o)
 .group         0x00000000        0x8 /root/devel/optee/optee_os/out/arm/export-ta_arm32/lib/libutils.a(bget_malloc.o)
 .group         0x00000000        0x8 /root/devel/optee/optee_os/out/arm/export-ta_arm32/lib/libutils.a(bget_malloc.o)
 .group         0x00000000        0x8 /root/devel/optee/optee_os/out/arm/export-ta_arm32/lib/libutils.a(bget_malloc.o)
 .group         0x00000000        0x8 /root/devel/optee/optee_os/out/arm/export-ta_arm32/lib/libutils.a(bget_malloc.o)
 .group         0x00000000        0x8 /root/devel/optee/optee_os/out/arm/export-ta_arm32/lib/libutils.a(bget_malloc.o)
 .group         0x00000000        0x8 /root/devel/optee/optee_os/out/arm/export-ta_arm32/lib/libutils.a(bget_malloc.o)
 .group         0x00000000        0x8 /root/devel/optee/optee_os/out/arm/export-ta_arm32/lib/libutils.a(bget_malloc.o)
 .group         0x00000000        0x8 /root/devel/optee/optee_os/out/arm/export-ta_arm32/lib/libutils.a(bget_malloc.o)
 .group         0x00000000        0x8 /root/devel/optee/optee_os/out/arm/export-ta_arm32/lib/libutils.a(bget_malloc.o)
 .group         0x00000000        0x8 /root/devel/optee/optee_os/out/arm/export-ta_arm32/lib/libutils.a(bget_malloc.o)
 .group         0x00000000        0x8 /root/devel/optee/optee_os/out/arm/export-ta_arm32/lib/libutils.a(bget_malloc.o)
 .group         0x00000000        0x8 /root/devel/optee/optee_os/out/arm/export-ta_arm32/lib/libutils.a(bget_malloc.o)
 .group         0x00000000        0x8 /root/devel/optee/optee_os/out/arm/export-ta_arm32/lib/libutils.a(bget_malloc.o)
 .debug_macro   0x00000000      0x8bc /root/devel/optee/optee_os/out/arm/export-ta_arm32/lib/libutils.a(bget_malloc.o)
 .debug_macro   0x00000000      0x1ea /root/devel/optee/optee_os/out/arm/export-ta_arm32/lib/libutils.a(bget_malloc.o)
 .debug_macro   0x00000000       0x8e /root/devel/optee/optee_os/out/arm/export-ta_arm32/lib/libutils.a(bget_malloc.o)
 .debug_macro   0x00000000      0x166 /root/devel/optee/optee_os/out/arm/export-ta_arm32/lib/libutils.a(bget_malloc.o)
 .debug_macro   0x00000000       0x7c /root/devel/optee/optee_os/out/arm/export-ta_arm32/lib/libutils.a(bget_malloc.o)
 .debug_macro   0x00000000      0x188 /root/devel/optee/optee_os/out/arm/export-ta_arm32/lib/libutils.a(bget_malloc.o)
 .debug_macro   0x00000000       0xc4 /root/devel/optee/optee_os/out/arm/export-ta_arm32/lib/libutils.a(bget_malloc.o)
 .debug_macro   0x00000000       0x22 /root/devel/optee/optee_os/out/arm/export-ta_arm32/lib/libutils.a(bget_malloc.o)
 .debug_macro   0x00000000       0x10 /root/devel/optee/optee_os/out/arm/export-ta_arm32/lib/libutils.a(bget_malloc.o)
 .debug_macro   0x00000000       0x58 /root/devel/optee/optee_os/out/arm/export-ta_arm32/lib/libutils.a(bget_malloc.o)
 .debug_macro   0x00000000       0x16 /root/devel/optee/optee_os/out/arm/export-ta_arm32/lib/libutils.a(bget_malloc.o)
 .debug_macro   0x00000000       0x10 /root/devel/optee/optee_os/out/arm/export-ta_arm32/lib/libutils.a(bget_malloc.o)
 .debug_macro   0x00000000       0x46 /root/devel/optee/optee_os/out/arm/export-ta_arm32/lib/libutils.a(bget_malloc.o)
 .group         0x00000000        0x8 /root/devel/optee/optee_os/out/arm/export-ta_arm32/lib/libutils.a(snprintf.o)
 .group         0x00000000        0x8 /root/devel/optee/optee_os/out/arm/export-ta_arm32/lib/libutils.a(snprintf.o)
 .group         0x00000000        0x8 /root/devel/optee/optee_os/out/arm/export-ta_arm32/lib/libutils.a(snprintf.o)
 .group         0x00000000        0x8 /root/devel/optee/optee_os/out/arm/export-ta_arm32/lib/libutils.a(snprintf.o)
 .group         0x00000000        0x8 /root/devel/optee/optee_os/out/arm/export-ta_arm32/lib/libutils.a(snprintf.o)
 .debug_macro   0x00000000      0x8bc /root/devel/optee/optee_os/out/arm/export-ta_arm32/lib/libutils.a(snprintf.o)
 .debug_macro   0x00000000      0x1ea /root/devel/optee/optee_os/out/arm/export-ta_arm32/lib/libutils.a(snprintf.o)
 .debug_macro   0x00000000      0x166 /root/devel/optee/optee_os/out/arm/export-ta_arm32/lib/libutils.a(snprintf.o)
 .debug_macro   0x00000000       0x58 /root/devel/optee/optee_os/out/arm/export-ta_arm32/lib/libutils.a(snprintf.o)
 .debug_macro   0x00000000       0x22 /root/devel/optee/optee_os/out/arm/export-ta_arm32/lib/libutils.a(snprintf.o)
 .group         0x00000000        0x8 /root/devel/optee/optee_os/out/arm/export-ta_arm32/lib/libutils.a(memcmp.o)
 .group         0x00000000        0x8 /root/devel/optee/optee_os/out/arm/export-ta_arm32/lib/libutils.a(memcmp.o)
 .group         0x00000000        0x8 /root/devel/optee/optee_os/out/arm/export-ta_arm32/lib/libutils.a(memcmp.o)
 .group         0x00000000        0x8 /root/devel/optee/optee_os/out/arm/export-ta_arm32/lib/libutils.a(memcmp.o)
 .group         0x00000000        0x8 /root/devel/optee/optee_os/out/arm/export-ta_arm32/lib/libutils.a(memcmp.o)
 .debug_macro   0x00000000      0x8bc /root/devel/optee/optee_os/out/arm/export-ta_arm32/lib/libutils.a(memcmp.o)
 .debug_macro   0x00000000      0x1ea /root/devel/optee/optee_os/out/arm/export-ta_arm32/lib/libutils.a(memcmp.o)
 .debug_macro   0x00000000      0x166 /root/devel/optee/optee_os/out/arm/export-ta_arm32/lib/libutils.a(memcmp.o)
 .debug_macro   0x00000000       0x10 /root/devel/optee/optee_os/out/arm/export-ta_arm32/lib/libutils.a(memcmp.o)
 .group         0x00000000        0x8 /root/devel/optee/optee_os/out/arm/export-ta_arm32/lib/libutils.a(memcpy.o)
 .group         0x00000000        0x8 /root/devel/optee/optee_os/out/arm/export-ta_arm32/lib/libutils.a(memcpy.o)
 .group         0x00000000        0x8 /root/devel/optee/optee_os/out/arm/export-ta_arm32/lib/libutils.a(memcpy.o)
 .group         0x00000000        0x8 /root/devel/optee/optee_os/out/arm/export-ta_arm32/lib/libutils.a(memcpy.o)
 .group         0x00000000        0x8 /root/devel/optee/optee_os/out/arm/export-ta_arm32/lib/libutils.a(memcpy.o)
 .debug_macro   0x00000000      0x8bc /root/devel/optee/optee_os/out/arm/export-ta_arm32/lib/libutils.a(memcpy.o)
 .debug_macro   0x00000000      0x1ea /root/devel/optee/optee_os/out/arm/export-ta_arm32/lib/libutils.a(memcpy.o)
 .debug_macro   0x00000000       0x7c /root/devel/optee/optee_os/out/arm/export-ta_arm32/lib/libutils.a(memcpy.o)
 .debug_macro   0x00000000      0x166 /root/devel/optee/optee_os/out/arm/export-ta_arm32/lib/libutils.a(memcpy.o)
 .debug_macro   0x00000000       0x10 /root/devel/optee/optee_os/out/arm/export-ta_arm32/lib/libutils.a(memcpy.o)
 .group         0x00000000        0x8 /root/devel/optee/optee_os/out/arm/export-ta_arm32/lib/libutils.a(memmove.o)
 .group         0x00000000        0x8 /root/devel/optee/optee_os/out/arm/export-ta_arm32/lib/libutils.a(memmove.o)
 .group         0x00000000        0x8 /root/devel/optee/optee_os/out/arm/export-ta_arm32/lib/libutils.a(memmove.o)
 .group         0x00000000        0x8 /root/devel/optee/optee_os/out/arm/export-ta_arm32/lib/libutils.a(memmove.o)
 .group         0x00000000        0x8 /root/devel/optee/optee_os/out/arm/export-ta_arm32/lib/libutils.a(memmove.o)
 .group         0x00000000        0x8 /root/devel/optee/optee_os/out/arm/export-ta_arm32/lib/libutils.a(memmove.o)
 .debug_macro   0x00000000      0x8bc /root/devel/optee/optee_os/out/arm/export-ta_arm32/lib/libutils.a(memmove.o)
 .debug_macro   0x00000000      0x1ea /root/devel/optee/optee_os/out/arm/export-ta_arm32/lib/libutils.a(memmove.o)
 .debug_macro   0x00000000      0x166 /root/devel/optee/optee_os/out/arm/export-ta_arm32/lib/libutils.a(memmove.o)
 .debug_macro   0x00000000       0x10 /root/devel/optee/optee_os/out/arm/export-ta_arm32/lib/libutils.a(memmove.o)
 .debug_macro   0x00000000       0x7c /root/devel/optee/optee_os/out/arm/export-ta_arm32/lib/libutils.a(memmove.o)
 .debug_macro   0x00000000       0x7c /root/devel/optee/optee_os/out/arm/export-ta_arm32/lib/libutils.a(memmove.o)
 .group         0x00000000        0x8 /root/devel/optee/optee_os/out/arm/export-ta_arm32/lib/libutils.a(memset.o)
 .group         0x00000000        0x8 /root/devel/optee/optee_os/out/arm/export-ta_arm32/lib/libutils.a(memset.o)
 .group         0x00000000        0x8 /root/devel/optee/optee_os/out/arm/export-ta_arm32/lib/libutils.a(memset.o)
 .group         0x00000000        0x8 /root/devel/optee/optee_os/out/arm/export-ta_arm32/lib/libutils.a(memset.o)
 .group         0x00000000        0x8 /root/devel/optee/optee_os/out/arm/export-ta_arm32/lib/libutils.a(memset.o)
 .debug_macro   0x00000000      0x8bc /root/devel/optee/optee_os/out/arm/export-ta_arm32/lib/libutils.a(memset.o)
 .debug_macro   0x00000000      0x1ea /root/devel/optee/optee_os/out/arm/export-ta_arm32/lib/libutils.a(memset.o)
 .debug_macro   0x00000000       0x7c /root/devel/optee/optee_os/out/arm/export-ta_arm32/lib/libutils.a(memset.o)
 .debug_macro   0x00000000      0x166 /root/devel/optee/optee_os/out/arm/export-ta_arm32/lib/libutils.a(memset.o)
 .debug_macro   0x00000000       0x10 /root/devel/optee/optee_os/out/arm/export-ta_arm32/lib/libutils.a(memset.o)
 .group         0x00000000        0x8 /root/devel/optee/optee_os/out/arm/export-ta_arm32/lib/libutils.a(strlen.o)
 .group         0x00000000        0x8 /root/devel/optee/optee_os/out/arm/export-ta_arm32/lib/libutils.a(strlen.o)
 .group         0x00000000        0x8 /root/devel/optee/optee_os/out/arm/export-ta_arm32/lib/libutils.a(strlen.o)
 .group         0x00000000        0x8 /root/devel/optee/optee_os/out/arm/export-ta_arm32/lib/libutils.a(strlen.o)
 .group         0x00000000        0x8 /root/devel/optee/optee_os/out/arm/export-ta_arm32/lib/libutils.a(strlen.o)
 .group         0x00000000        0x8 /root/devel/optee/optee_os/out/arm/export-ta_arm32/lib/libutils.a(strlen.o)
 .debug_macro   0x00000000      0x8bc /root/devel/optee/optee_os/out/arm/export-ta_arm32/lib/libutils.a(strlen.o)
 .debug_macro   0x00000000      0x1ea /root/devel/optee/optee_os/out/arm/export-ta_arm32/lib/libutils.a(strlen.o)
 .debug_macro   0x00000000       0x7c /root/devel/optee/optee_os/out/arm/export-ta_arm32/lib/libutils.a(strlen.o)
 .debug_macro   0x00000000      0x166 /root/devel/optee/optee_os/out/arm/export-ta_arm32/lib/libutils.a(strlen.o)
 .debug_macro   0x00000000       0x10 /root/devel/optee/optee_os/out/arm/export-ta_arm32/lib/libutils.a(strlen.o)
 .debug_macro   0x00000000       0x7c /root/devel/optee/optee_os/out/arm/export-ta_arm32/lib/libutils.a(strlen.o)
 .group         0x00000000        0x8 /root/devel/optee/optee_os/out/arm/export-ta_arm32/lib/libutils.a(snprintk.o)
 .group         0x00000000        0x8 /root/devel/optee/optee_os/out/arm/export-ta_arm32/lib/libutils.a(snprintk.o)
 .group         0x00000000        0x8 /root/devel/optee/optee_os/out/arm/export-ta_arm32/lib/libutils.a(snprintk.o)
 .group         0x00000000        0x8 /root/devel/optee/optee_os/out/arm/export-ta_arm32/lib/libutils.a(snprintk.o)
 .group         0x00000000        0x8 /root/devel/optee/optee_os/out/arm/export-ta_arm32/lib/libutils.a(snprintk.o)
 .group         0x00000000        0x8 /root/devel/optee/optee_os/out/arm/export-ta_arm32/lib/libutils.a(snprintk.o)
 .group         0x00000000        0x8 /root/devel/optee/optee_os/out/arm/export-ta_arm32/lib/libutils.a(snprintk.o)
 .debug_macro   0x00000000      0x8bc /root/devel/optee/optee_os/out/arm/export-ta_arm32/lib/libutils.a(snprintk.o)
 .debug_macro   0x00000000      0x1ea /root/devel/optee/optee_os/out/arm/export-ta_arm32/lib/libutils.a(snprintk.o)
 .debug_macro   0x00000000      0x188 /root/devel/optee/optee_os/out/arm/export-ta_arm32/lib/libutils.a(snprintk.o)
 .debug_macro   0x00000000      0x166 /root/devel/optee/optee_os/out/arm/export-ta_arm32/lib/libutils.a(snprintk.o)
 .debug_macro   0x00000000       0x10 /root/devel/optee/optee_os/out/arm/export-ta_arm32/lib/libutils.a(snprintk.o)
 .debug_macro   0x00000000       0x58 /root/devel/optee/optee_os/out/arm/export-ta_arm32/lib/libutils.a(snprintk.o)
 .debug_macro   0x00000000       0x22 /root/devel/optee/optee_os/out/arm/export-ta_arm32/lib/libutils.a(snprintk.o)
 .group         0x00000000        0x8 /root/devel/optee/optee_os/out/arm/export-ta_arm32/lib/libutils.a(strlcpy.o)
 .group         0x00000000        0x8 /root/devel/optee/optee_os/out/arm/export-ta_arm32/lib/libutils.a(strlcpy.o)
 .group         0x00000000        0x8 /root/devel/optee/optee_os/out/arm/export-ta_arm32/lib/libutils.a(strlcpy.o)
 .group         0x00000000        0x8 /root/devel/optee/optee_os/out/arm/export-ta_arm32/lib/libutils.a(strlcpy.o)
 .group         0x00000000        0x8 /root/devel/optee/optee_os/out/arm/export-ta_arm32/lib/libutils.a(strlcpy.o)
 .group         0x00000000        0x8 /root/devel/optee/optee_os/out/arm/export-ta_arm32/lib/libutils.a(strlcpy.o)
 .group         0x00000000        0x8 /root/devel/optee/optee_os/out/arm/export-ta_arm32/lib/libutils.a(strlcpy.o)
 .group         0x00000000        0x8 /root/devel/optee/optee_os/out/arm/export-ta_arm32/lib/libutils.a(strlcpy.o)
 .group         0x00000000        0x8 /root/devel/optee/optee_os/out/arm/export-ta_arm32/lib/libutils.a(strlcpy.o)
 .debug_macro   0x00000000      0x8bc /root/devel/optee/optee_os/out/arm/export-ta_arm32/lib/libutils.a(strlcpy.o)
 .debug_macro   0x00000000      0x1ea /root/devel/optee/optee_os/out/arm/export-ta_arm32/lib/libutils.a(strlcpy.o)
 .debug_macro   0x00000000       0x7c /root/devel/optee/optee_os/out/arm/export-ta_arm32/lib/libutils.a(strlcpy.o)
 .debug_macro   0x00000000      0x166 /root/devel/optee/optee_os/out/arm/export-ta_arm32/lib/libutils.a(strlcpy.o)
 .debug_macro   0x00000000      0x188 /root/devel/optee/optee_os/out/arm/export-ta_arm32/lib/libutils.a(strlcpy.o)
 .debug_macro   0x00000000       0xc4 /root/devel/optee/optee_os/out/arm/export-ta_arm32/lib/libutils.a(strlcpy.o)
 .debug_macro   0x00000000       0x22 /root/devel/optee/optee_os/out/arm/export-ta_arm32/lib/libutils.a(strlcpy.o)
 .debug_macro   0x00000000       0x10 /root/devel/optee/optee_os/out/arm/export-ta_arm32/lib/libutils.a(strlcpy.o)
 .debug_macro   0x00000000       0x10 /root/devel/optee/optee_os/out/arm/export-ta_arm32/lib/libutils.a(strlcpy.o)
 .group         0x00000000        0x8 /root/devel/optee/optee_os/out/arm/export-ta_arm32/lib/libutils.a(trace.o)
 .group         0x00000000        0x8 /root/devel/optee/optee_os/out/arm/export-ta_arm32/lib/libutils.a(trace.o)
 .group         0x00000000        0x8 /root/devel/optee/optee_os/out/arm/export-ta_arm32/lib/libutils.a(trace.o)
 .group         0x00000000        0x8 /root/devel/optee/optee_os/out/arm/export-ta_arm32/lib/libutils.a(trace.o)
 .group         0x00000000        0x8 /root/devel/optee/optee_os/out/arm/export-ta_arm32/lib/libutils.a(trace.o)
 .group         0x00000000        0x8 /root/devel/optee/optee_os/out/arm/export-ta_arm32/lib/libutils.a(trace.o)
 .group         0x00000000        0x8 /root/devel/optee/optee_os/out/arm/export-ta_arm32/lib/libutils.a(trace.o)
 .group         0x00000000        0x8 /root/devel/optee/optee_os/out/arm/export-ta_arm32/lib/libutils.a(trace.o)
 .group         0x00000000        0x8 /root/devel/optee/optee_os/out/arm/export-ta_arm32/lib/libutils.a(trace.o)
 .group         0x00000000        0x8 /root/devel/optee/optee_os/out/arm/export-ta_arm32/lib/libutils.a(trace.o)
 .group         0x00000000        0x8 /root/devel/optee/optee_os/out/arm/export-ta_arm32/lib/libutils.a(trace.o)
 .group         0x00000000        0x8 /root/devel/optee/optee_os/out/arm/export-ta_arm32/lib/libutils.a(trace.o)
 .group         0x00000000        0x8 /root/devel/optee/optee_os/out/arm/export-ta_arm32/lib/libutils.a(trace.o)
 .group         0x00000000        0x8 /root/devel/optee/optee_os/out/arm/export-ta_arm32/lib/libutils.a(trace.o)
 .debug_macro   0x00000000      0x8bc /root/devel/optee/optee_os/out/arm/export-ta_arm32/lib/libutils.a(trace.o)
 .debug_macro   0x00000000      0x1ea /root/devel/optee/optee_os/out/arm/export-ta_arm32/lib/libutils.a(trace.o)
 .debug_macro   0x00000000      0x166 /root/devel/optee/optee_os/out/arm/export-ta_arm32/lib/libutils.a(trace.o)
 .debug_macro   0x00000000       0x58 /root/devel/optee/optee_os/out/arm/export-ta_arm32/lib/libutils.a(trace.o)
 .debug_macro   0x00000000       0x22 /root/devel/optee/optee_os/out/arm/export-ta_arm32/lib/libutils.a(trace.o)
 .debug_macro   0x00000000       0x10 /root/devel/optee/optee_os/out/arm/export-ta_arm32/lib/libutils.a(trace.o)
 .debug_macro   0x00000000       0x8e /root/devel/optee/optee_os/out/arm/export-ta_arm32/lib/libutils.a(trace.o)
 .debug_macro   0x00000000       0x34 /root/devel/optee/optee_os/out/arm/export-ta_arm32/lib/libutils.a(trace.o)
 .debug_macro   0x00000000       0x7b /root/devel/optee/optee_os/out/arm/export-ta_arm32/lib/libutils.a(trace.o)
 .debug_macro   0x00000000       0x46 /root/devel/optee/optee_os/out/arm/export-ta_arm32/lib/libutils.a(trace.o)
 .debug_macro   0x00000000       0x7c /root/devel/optee/optee_os/out/arm/export-ta_arm32/lib/libutils.a(trace.o)
 .debug_macro   0x00000000      0x188 /root/devel/optee/optee_os/out/arm/export-ta_arm32/lib/libutils.a(trace.o)
 .debug_macro   0x00000000       0xc4 /root/devel/optee/optee_os/out/arm/export-ta_arm32/lib/libutils.a(trace.o)
 .debug_macro   0x00000000       0x10 /root/devel/optee/optee_os/out/arm/export-ta_arm32/lib/libutils.a(trace.o)
 .group         0x00000000        0x8 /root/devel/optee/optee_os/out/arm/export-ta_arm32/lib/libutils.a(memchr.o)
 .group         0x00000000        0x8 /root/devel/optee/optee_os/out/arm/export-ta_arm32/lib/libutils.a(memchr.o)
 .group         0x00000000        0x8 /root/devel/optee/optee_os/out/arm/export-ta_arm32/lib/libutils.a(memchr.o)
 .group         0x00000000        0x8 /root/devel/optee/optee_os/out/arm/export-ta_arm32/lib/libutils.a(memchr.o)
 .group         0x00000000        0x8 /root/devel/optee/optee_os/out/arm/export-ta_arm32/lib/libutils.a(memchr.o)
 .group         0x00000000        0x8 /root/devel/optee/optee_os/out/arm/export-ta_arm32/lib/libutils.a(memchr.o)
 .debug_macro   0x00000000      0x8bc /root/devel/optee/optee_os/out/arm/export-ta_arm32/lib/libutils.a(memchr.o)
 .debug_macro   0x00000000      0x1ea /root/devel/optee/optee_os/out/arm/export-ta_arm32/lib/libutils.a(memchr.o)
 .debug_macro   0x00000000       0x7c /root/devel/optee/optee_os/out/arm/export-ta_arm32/lib/libutils.a(memchr.o)
 .debug_macro   0x00000000      0x166 /root/devel/optee/optee_os/out/arm/export-ta_arm32/lib/libutils.a(memchr.o)
 .debug_macro   0x00000000       0x10 /root/devel/optee/optee_os/out/arm/export-ta_arm32/lib/libutils.a(memchr.o)
 .debug_macro   0x00000000       0x7c /root/devel/optee/optee_os/out/arm/export-ta_arm32/lib/libutils.a(memchr.o)
 .group         0x00000000        0x8 /root/devel/optee/optee_os/out/arm/export-ta_arm32/lib/libutils.a(arm32_aeabi_ldivmod.o)
 .group         0x00000000        0x8 /root/devel/optee/optee_os/out/arm/export-ta_arm32/lib/libutils.a(arm32_aeabi_ldivmod.o)
 .debug_macro   0x00000000      0x8bc /root/devel/optee/optee_os/out/arm/export-ta_arm32/lib/libutils.a(arm32_aeabi_ldivmod.o)
 .debug_macro   0x00000000      0x1ea /root/devel/optee/optee_os/out/arm/export-ta_arm32/lib/libutils.a(arm32_aeabi_ldivmod.o)
 .group         0x00000000        0x8 /root/devel/optee/optee_os/out/arm/export-ta_arm32/lib/libmpa.a(mpa_misc.o)
 .group         0x00000000        0x8 /root/devel/optee/optee_os/out/arm/export-ta_arm32/lib/libmpa.a(mpa_misc.o)
 .group         0x00000000        0x8 /root/devel/optee/optee_os/out/arm/export-ta_arm32/lib/libmpa.a(mpa_misc.o)
 .group         0x00000000        0x8 /root/devel/optee/optee_os/out/arm/export-ta_arm32/lib/libmpa.a(mpa_misc.o)
 .group         0x00000000        0x8 /root/devel/optee/optee_os/out/arm/export-ta_arm32/lib/libmpa.a(mpa_misc.o)
 .group         0x00000000        0x8 /root/devel/optee/optee_os/out/arm/export-ta_arm32/lib/libmpa.a(mpa_misc.o)
 .group         0x00000000        0x8 /root/devel/optee/optee_os/out/arm/export-ta_arm32/lib/libmpa.a(mpa_misc.o)
 .group         0x00000000        0x8 /root/devel/optee/optee_os/out/arm/export-ta_arm32/lib/libmpa.a(mpa_misc.o)
 .group         0x00000000        0x8 /root/devel/optee/optee_os/out/arm/export-ta_arm32/lib/libmpa.a(mpa_misc.o)
 .group         0x00000000        0x8 /root/devel/optee/optee_os/out/arm/export-ta_arm32/lib/libmpa.a(mpa_misc.o)
 .group         0x00000000        0x8 /root/devel/optee/optee_os/out/arm/export-ta_arm32/lib/libmpa.a(mpa_misc.o)
 .group         0x00000000        0x8 /root/devel/optee/optee_os/out/arm/export-ta_arm32/lib/libmpa.a(mpa_misc.o)
 .group         0x00000000        0x8 /root/devel/optee/optee_os/out/arm/export-ta_arm32/lib/libmpa.a(mpa_misc.o)
 .group         0x00000000        0x8 /root/devel/optee/optee_os/out/arm/export-ta_arm32/lib/libmpa.a(mpa_misc.o)
 .group         0x00000000        0x8 /root/devel/optee/optee_os/out/arm/export-ta_arm32/lib/libmpa.a(mpa_misc.o)
 .debug_macro   0x00000000      0x8bc /root/devel/optee/optee_os/out/arm/export-ta_arm32/lib/libmpa.a(mpa_misc.o)
 .debug_macro   0x00000000      0x1ea /root/devel/optee/optee_os/out/arm/export-ta_arm32/lib/libmpa.a(mpa_misc.o)
 .debug_macro   0x00000000       0x10 /root/devel/optee/optee_os/out/arm/export-ta_arm32/lib/libmpa.a(mpa_misc.o)
 .debug_macro   0x00000000       0x7c /root/devel/optee/optee_os/out/arm/export-ta_arm32/lib/libmpa.a(mpa_misc.o)
 .debug_macro   0x00000000      0x188 /root/devel/optee/optee_os/out/arm/export-ta_arm32/lib/libmpa.a(mpa_misc.o)
 .debug_macro   0x00000000       0x22 /root/devel/optee/optee_os/out/arm/export-ta_arm32/lib/libmpa.a(mpa_misc.o)
 .debug_macro   0x00000000       0x4c /root/devel/optee/optee_os/out/arm/export-ta_arm32/lib/libmpa.a(mpa_misc.o)
 .debug_macro   0x00000000       0x8e /root/devel/optee/optee_os/out/arm/export-ta_arm32/lib/libmpa.a(mpa_misc.o)
 .debug_macro   0x00000000      0x166 /root/devel/optee/optee_os/out/arm/export-ta_arm32/lib/libmpa.a(mpa_misc.o)
 .debug_macro   0x00000000       0xca /root/devel/optee/optee_os/out/arm/export-ta_arm32/lib/libmpa.a(mpa_misc.o)
 .debug_macro   0x00000000       0x10 /root/devel/optee/optee_os/out/arm/export-ta_arm32/lib/libmpa.a(mpa_misc.o)
 .debug_macro   0x00000000       0x10 /root/devel/optee/optee_os/out/arm/export-ta_arm32/lib/libmpa.a(mpa_misc.o)
 .debug_macro   0x00000000       0x16 /root/devel/optee/optee_os/out/arm/export-ta_arm32/lib/libmpa.a(mpa_misc.o)
 .debug_macro   0x00000000       0x74 /root/devel/optee/optee_os/out/arm/export-ta_arm32/lib/libmpa.a(mpa_misc.o)
 .group         0x00000000        0x8 /root/devel/optee/optee_os/out/arm/export-ta_arm32/lib/libmpa.a(mpa_montgomery.o)
 .group         0x00000000        0x8 /root/devel/optee/optee_os/out/arm/export-ta_arm32/lib/libmpa.a(mpa_montgomery.o)
 .group         0x00000000        0x8 /root/devel/optee/optee_os/out/arm/export-ta_arm32/lib/libmpa.a(mpa_montgomery.o)
 .group         0x00000000        0x8 /root/devel/optee/optee_os/out/arm/export-ta_arm32/lib/libmpa.a(mpa_montgomery.o)
 .group         0x00000000        0x8 /root/devel/optee/optee_os/out/arm/export-ta_arm32/lib/libmpa.a(mpa_montgomery.o)
 .group         0x00000000        0x8 /root/devel/optee/optee_os/out/arm/export-ta_arm32/lib/libmpa.a(mpa_montgomery.o)
 .group         0x00000000        0x8 /root/devel/optee/optee_os/out/arm/export-ta_arm32/lib/libmpa.a(mpa_montgomery.o)
 .group         0x00000000        0x8 /root/devel/optee/optee_os/out/arm/export-ta_arm32/lib/libmpa.a(mpa_montgomery.o)
 .group         0x00000000        0x8 /root/devel/optee/optee_os/out/arm/export-ta_arm32/lib/libmpa.a(mpa_montgomery.o)
 .group         0x00000000        0x8 /root/devel/optee/optee_os/out/arm/export-ta_arm32/lib/libmpa.a(mpa_montgomery.o)
 .group         0x00000000        0x8 /root/devel/optee/optee_os/out/arm/export-ta_arm32/lib/libmpa.a(mpa_montgomery.o)
 .group         0x00000000        0x8 /root/devel/optee/optee_os/out/arm/export-ta_arm32/lib/libmpa.a(mpa_montgomery.o)
 .group         0x00000000        0x8 /root/devel/optee/optee_os/out/arm/export-ta_arm32/lib/libmpa.a(mpa_montgomery.o)
 .group         0x00000000        0x8 /root/devel/optee/optee_os/out/arm/export-ta_arm32/lib/libmpa.a(mpa_montgomery.o)
 .group         0x00000000        0x8 /root/devel/optee/optee_os/out/arm/export-ta_arm32/lib/libmpa.a(mpa_montgomery.o)
 .debug_macro   0x00000000      0x8bc /root/devel/optee/optee_os/out/arm/export-ta_arm32/lib/libmpa.a(mpa_montgomery.o)
 .debug_macro   0x00000000      0x1ea /root/devel/optee/optee_os/out/arm/export-ta_arm32/lib/libmpa.a(mpa_montgomery.o)
 .debug_macro   0x00000000       0x10 /root/devel/optee/optee_os/out/arm/export-ta_arm32/lib/libmpa.a(mpa_montgomery.o)
 .debug_macro   0x00000000       0x7c /root/devel/optee/optee_os/out/arm/export-ta_arm32/lib/libmpa.a(mpa_montgomery.o)
 .debug_macro   0x00000000      0x188 /root/devel/optee/optee_os/out/arm/export-ta_arm32/lib/libmpa.a(mpa_montgomery.o)
 .debug_macro   0x00000000       0x22 /root/devel/optee/optee_os/out/arm/export-ta_arm32/lib/libmpa.a(mpa_montgomery.o)
 .debug_macro   0x00000000       0x4c /root/devel/optee/optee_os/out/arm/export-ta_arm32/lib/libmpa.a(mpa_montgomery.o)
 .debug_macro   0x00000000       0x8e /root/devel/optee/optee_os/out/arm/export-ta_arm32/lib/libmpa.a(mpa_montgomery.o)
 .debug_macro   0x00000000      0x166 /root/devel/optee/optee_os/out/arm/export-ta_arm32/lib/libmpa.a(mpa_montgomery.o)
 .debug_macro   0x00000000       0xca /root/devel/optee/optee_os/out/arm/export-ta_arm32/lib/libmpa.a(mpa_montgomery.o)
 .debug_macro   0x00000000       0x10 /root/devel/optee/optee_os/out/arm/export-ta_arm32/lib/libmpa.a(mpa_montgomery.o)
 .debug_macro   0x00000000       0x10 /root/devel/optee/optee_os/out/arm/export-ta_arm32/lib/libmpa.a(mpa_montgomery.o)
 .debug_macro   0x00000000       0x16 /root/devel/optee/optee_os/out/arm/export-ta_arm32/lib/libmpa.a(mpa_montgomery.o)
 .debug_macro   0x00000000       0x74 /root/devel/optee/optee_os/out/arm/export-ta_arm32/lib/libmpa.a(mpa_montgomery.o)
 .debug_macro   0x00000000       0xa6 /root/devel/optee/optee_os/out/arm/export-ta_arm32/lib/libmpa.a(mpa_montgomery.o)
 .group         0x00000000        0x8 /root/devel/optee/optee_os/out/arm/export-ta_arm32/lib/libmpa.a(mpa_primetest.o)
 .group         0x00000000        0x8 /root/devel/optee/optee_os/out/arm/export-ta_arm32/lib/libmpa.a(mpa_primetest.o)
 .group         0x00000000        0x8 /root/devel/optee/optee_os/out/arm/export-ta_arm32/lib/libmpa.a(mpa_primetest.o)
 .group         0x00000000        0x8 /root/devel/optee/optee_os/out/arm/export-ta_arm32/lib/libmpa.a(mpa_primetest.o)
 .group         0x00000000        0x8 /root/devel/optee/optee_os/out/arm/export-ta_arm32/lib/libmpa.a(mpa_primetest.o)
 .group         0x00000000        0x8 /root/devel/optee/optee_os/out/arm/export-ta_arm32/lib/libmpa.a(mpa_primetest.o)
 .group         0x00000000        0x8 /root/devel/optee/optee_os/out/arm/export-ta_arm32/lib/libmpa.a(mpa_primetest.o)
 .group         0x00000000        0x8 /root/devel/optee/optee_os/out/arm/export-ta_arm32/lib/libmpa.a(mpa_primetest.o)
 .group         0x00000000        0x8 /root/devel/optee/optee_os/out/arm/export-ta_arm32/lib/libmpa.a(mpa_primetest.o)
 .group         0x00000000        0x8 /root/devel/optee/optee_os/out/arm/export-ta_arm32/lib/libmpa.a(mpa_primetest.o)
 .group         0x00000000        0x8 /root/devel/optee/optee_os/out/arm/export-ta_arm32/lib/libmpa.a(mpa_primetest.o)
 .group         0x00000000        0x8 /root/devel/optee/optee_os/out/arm/export-ta_arm32/lib/libmpa.a(mpa_primetest.o)
 .group         0x00000000        0x8 /root/devel/optee/optee_os/out/arm/export-ta_arm32/lib/libmpa.a(mpa_primetest.o)
 .group         0x00000000        0x8 /root/devel/optee/optee_os/out/arm/export-ta_arm32/lib/libmpa.a(mpa_primetest.o)
 .group         0x00000000        0x8 /root/devel/optee/optee_os/out/arm/export-ta_arm32/lib/libmpa.a(mpa_primetest.o)
 .debug_macro   0x00000000      0x8bc /root/devel/optee/optee_os/out/arm/export-ta_arm32/lib/libmpa.a(mpa_primetest.o)
 .debug_macro   0x00000000      0x1ea /root/devel/optee/optee_os/out/arm/export-ta_arm32/lib/libmpa.a(mpa_primetest.o)
 .debug_macro   0x00000000       0x10 /root/devel/optee/optee_os/out/arm/export-ta_arm32/lib/libmpa.a(mpa_primetest.o)
 .debug_macro   0x00000000       0x7c /root/devel/optee/optee_os/out/arm/export-ta_arm32/lib/libmpa.a(mpa_primetest.o)
 .debug_macro   0x00000000      0x188 /root/devel/optee/optee_os/out/arm/export-ta_arm32/lib/libmpa.a(mpa_primetest.o)
 .debug_macro   0x00000000       0x22 /root/devel/optee/optee_os/out/arm/export-ta_arm32/lib/libmpa.a(mpa_primetest.o)
 .debug_macro   0x00000000       0x4c /root/devel/optee/optee_os/out/arm/export-ta_arm32/lib/libmpa.a(mpa_primetest.o)
 .debug_macro   0x00000000       0x8e /root/devel/optee/optee_os/out/arm/export-ta_arm32/lib/libmpa.a(mpa_primetest.o)
 .debug_macro   0x00000000      0x166 /root/devel/optee/optee_os/out/arm/export-ta_arm32/lib/libmpa.a(mpa_primetest.o)
 .debug_macro   0x00000000       0xca /root/devel/optee/optee_os/out/arm/export-ta_arm32/lib/libmpa.a(mpa_primetest.o)
 .debug_macro   0x00000000       0x10 /root/devel/optee/optee_os/out/arm/export-ta_arm32/lib/libmpa.a(mpa_primetest.o)
 .debug_macro   0x00000000       0x10 /root/devel/optee/optee_os/out/arm/export-ta_arm32/lib/libmpa.a(mpa_primetest.o)
 .debug_macro   0x00000000       0x16 /root/devel/optee/optee_os/out/arm/export-ta_arm32/lib/libmpa.a(mpa_primetest.o)
 .debug_macro   0x00000000       0x74 /root/devel/optee/optee_os/out/arm/export-ta_arm32/lib/libmpa.a(mpa_primetest.o)
 .debug_macro   0x00000000       0xa6 /root/devel/optee/optee_os/out/arm/export-ta_arm32/lib/libmpa.a(mpa_primetest.o)
 .group         0x00000000        0x8 /root/devel/optee/optee_os/out/arm/export-ta_arm32/lib/libmpa.a(mpa_conv.o)
 .group         0x00000000        0x8 /root/devel/optee/optee_os/out/arm/export-ta_arm32/lib/libmpa.a(mpa_conv.o)
 .group         0x00000000        0x8 /root/devel/optee/optee_os/out/arm/export-ta_arm32/lib/libmpa.a(mpa_conv.o)
 .group         0x00000000        0x8 /root/devel/optee/optee_os/out/arm/export-ta_arm32/lib/libmpa.a(mpa_conv.o)
 .group         0x00000000        0x8 /root/devel/optee/optee_os/out/arm/export-ta_arm32/lib/libmpa.a(mpa_conv.o)
 .group         0x00000000        0x8 /root/devel/optee/optee_os/out/arm/export-ta_arm32/lib/libmpa.a(mpa_conv.o)
 .group         0x00000000        0x8 /root/devel/optee/optee_os/out/arm/export-ta_arm32/lib/libmpa.a(mpa_conv.o)
 .group         0x00000000        0x8 /root/devel/optee/optee_os/out/arm/export-ta_arm32/lib/libmpa.a(mpa_conv.o)
 .group         0x00000000        0x8 /root/devel/optee/optee_os/out/arm/export-ta_arm32/lib/libmpa.a(mpa_conv.o)
 .group         0x00000000        0x8 /root/devel/optee/optee_os/out/arm/export-ta_arm32/lib/libmpa.a(mpa_conv.o)
 .group         0x00000000        0x8 /root/devel/optee/optee_os/out/arm/export-ta_arm32/lib/libmpa.a(mpa_conv.o)
 .group         0x00000000        0x8 /root/devel/optee/optee_os/out/arm/export-ta_arm32/lib/libmpa.a(mpa_conv.o)
 .group         0x00000000        0x8 /root/devel/optee/optee_os/out/arm/export-ta_arm32/lib/libmpa.a(mpa_conv.o)
 .group         0x00000000        0x8 /root/devel/optee/optee_os/out/arm/export-ta_arm32/lib/libmpa.a(mpa_conv.o)
 .group         0x00000000        0x8 /root/devel/optee/optee_os/out/arm/export-ta_arm32/lib/libmpa.a(mpa_conv.o)
 .debug_macro   0x00000000      0x8bc /root/devel/optee/optee_os/out/arm/export-ta_arm32/lib/libmpa.a(mpa_conv.o)
 .debug_macro   0x00000000      0x1ea /root/devel/optee/optee_os/out/arm/export-ta_arm32/lib/libmpa.a(mpa_conv.o)
 .debug_macro   0x00000000       0x10 /root/devel/optee/optee_os/out/arm/export-ta_arm32/lib/libmpa.a(mpa_conv.o)
 .debug_macro   0x00000000       0x7c /root/devel/optee/optee_os/out/arm/export-ta_arm32/lib/libmpa.a(mpa_conv.o)
 .debug_macro   0x00000000      0x188 /root/devel/optee/optee_os/out/arm/export-ta_arm32/lib/libmpa.a(mpa_conv.o)
 .debug_macro   0x00000000       0x22 /root/devel/optee/optee_os/out/arm/export-ta_arm32/lib/libmpa.a(mpa_conv.o)
 .debug_macro   0x00000000       0x4c /root/devel/optee/optee_os/out/arm/export-ta_arm32/lib/libmpa.a(mpa_conv.o)
 .debug_macro   0x00000000       0x8e /root/devel/optee/optee_os/out/arm/export-ta_arm32/lib/libmpa.a(mpa_conv.o)
 .debug_macro   0x00000000      0x166 /root/devel/optee/optee_os/out/arm/export-ta_arm32/lib/libmpa.a(mpa_conv.o)
 .debug_macro   0x00000000       0xca /root/devel/optee/optee_os/out/arm/export-ta_arm32/lib/libmpa.a(mpa_conv.o)
 .debug_macro   0x00000000       0x10 /root/devel/optee/optee_os/out/arm/export-ta_arm32/lib/libmpa.a(mpa_conv.o)
 .debug_macro   0x00000000       0x10 /root/devel/optee/optee_os/out/arm/export-ta_arm32/lib/libmpa.a(mpa_conv.o)
 .debug_macro   0x00000000       0x16 /root/devel/optee/optee_os/out/arm/export-ta_arm32/lib/libmpa.a(mpa_conv.o)
 .debug_macro   0x00000000       0x74 /root/devel/optee/optee_os/out/arm/export-ta_arm32/lib/libmpa.a(mpa_conv.o)
 .debug_macro   0x00000000       0xa6 /root/devel/optee/optee_os/out/arm/export-ta_arm32/lib/libmpa.a(mpa_conv.o)
 .group         0x00000000        0x8 /root/devel/optee/optee_os/out/arm/export-ta_arm32/lib/libmpa.a(mpa_div.o)
 .group         0x00000000        0x8 /root/devel/optee/optee_os/out/arm/export-ta_arm32/lib/libmpa.a(mpa_div.o)
 .group         0x00000000        0x8 /root/devel/optee/optee_os/out/arm/export-ta_arm32/lib/libmpa.a(mpa_div.o)
 .group         0x00000000        0x8 /root/devel/optee/optee_os/out/arm/export-ta_arm32/lib/libmpa.a(mpa_div.o)
 .group         0x00000000        0x8 /root/devel/optee/optee_os/out/arm/export-ta_arm32/lib/libmpa.a(mpa_div.o)
 .group         0x00000000        0x8 /root/devel/optee/optee_os/out/arm/export-ta_arm32/lib/libmpa.a(mpa_div.o)
 .group         0x00000000        0x8 /root/devel/optee/optee_os/out/arm/export-ta_arm32/lib/libmpa.a(mpa_div.o)
 .group         0x00000000        0x8 /root/devel/optee/optee_os/out/arm/export-ta_arm32/lib/libmpa.a(mpa_div.o)
 .group         0x00000000        0x8 /root/devel/optee/optee_os/out/arm/export-ta_arm32/lib/libmpa.a(mpa_div.o)
 .group         0x00000000        0x8 /root/devel/optee/optee_os/out/arm/export-ta_arm32/lib/libmpa.a(mpa_div.o)
 .group         0x00000000        0x8 /root/devel/optee/optee_os/out/arm/export-ta_arm32/lib/libmpa.a(mpa_div.o)
 .group         0x00000000        0x8 /root/devel/optee/optee_os/out/arm/export-ta_arm32/lib/libmpa.a(mpa_div.o)
 .group         0x00000000        0x8 /root/devel/optee/optee_os/out/arm/export-ta_arm32/lib/libmpa.a(mpa_div.o)
 .group         0x00000000        0x8 /root/devel/optee/optee_os/out/arm/export-ta_arm32/lib/libmpa.a(mpa_div.o)
 .group         0x00000000        0x8 /root/devel/optee/optee_os/out/arm/export-ta_arm32/lib/libmpa.a(mpa_div.o)
 .debug_macro   0x00000000      0x8bc /root/devel/optee/optee_os/out/arm/export-ta_arm32/lib/libmpa.a(mpa_div.o)
 .debug_macro   0x00000000      0x1ea /root/devel/optee/optee_os/out/arm/export-ta_arm32/lib/libmpa.a(mpa_div.o)
 .debug_macro   0x00000000       0x10 /root/devel/optee/optee_os/out/arm/export-ta_arm32/lib/libmpa.a(mpa_div.o)
 .debug_macro   0x00000000       0x7c /root/devel/optee/optee_os/out/arm/export-ta_arm32/lib/libmpa.a(mpa_div.o)
 .debug_macro   0x00000000      0x188 /root/devel/optee/optee_os/out/arm/export-ta_arm32/lib/libmpa.a(mpa_div.o)
 .debug_macro   0x00000000       0x22 /root/devel/optee/optee_os/out/arm/export-ta_arm32/lib/libmpa.a(mpa_div.o)
 .debug_macro   0x00000000       0x4c /root/devel/optee/optee_os/out/arm/export-ta_arm32/lib/libmpa.a(mpa_div.o)
 .debug_macro   0x00000000       0x8e /root/devel/optee/optee_os/out/arm/export-ta_arm32/lib/libmpa.a(mpa_div.o)
 .debug_macro   0x00000000      0x166 /root/devel/optee/optee_os/out/arm/export-ta_arm32/lib/libmpa.a(mpa_div.o)
 .debug_macro   0x00000000       0xca /root/devel/optee/optee_os/out/arm/export-ta_arm32/lib/libmpa.a(mpa_div.o)
 .debug_macro   0x00000000       0x10 /root/devel/optee/optee_os/out/arm/export-ta_arm32/lib/libmpa.a(mpa_div.o)
 .debug_macro   0x00000000       0x10 /root/devel/optee/optee_os/out/arm/export-ta_arm32/lib/libmpa.a(mpa_div.o)
 .debug_macro   0x00000000       0x16 /root/devel/optee/optee_os/out/arm/export-ta_arm32/lib/libmpa.a(mpa_div.o)
 .debug_macro   0x00000000       0x74 /root/devel/optee/optee_os/out/arm/export-ta_arm32/lib/libmpa.a(mpa_div.o)
 .debug_macro   0x00000000       0xa6 /root/devel/optee/optee_os/out/arm/export-ta_arm32/lib/libmpa.a(mpa_div.o)
 .group         0x00000000        0x8 /root/devel/optee/optee_os/out/arm/export-ta_arm32/lib/libmpa.a(mpa_gcd.o)
 .group         0x00000000        0x8 /root/devel/optee/optee_os/out/arm/export-ta_arm32/lib/libmpa.a(mpa_gcd.o)
 .group         0x00000000        0x8 /root/devel/optee/optee_os/out/arm/export-ta_arm32/lib/libmpa.a(mpa_gcd.o)
 .group         0x00000000        0x8 /root/devel/optee/optee_os/out/arm/export-ta_arm32/lib/libmpa.a(mpa_gcd.o)
 .group         0x00000000        0x8 /root/devel/optee/optee_os/out/arm/export-ta_arm32/lib/libmpa.a(mpa_gcd.o)
 .group         0x00000000        0x8 /root/devel/optee/optee_os/out/arm/export-ta_arm32/lib/libmpa.a(mpa_gcd.o)
 .group         0x00000000        0x8 /root/devel/optee/optee_os/out/arm/export-ta_arm32/lib/libmpa.a(mpa_gcd.o)
 .group         0x00000000        0x8 /root/devel/optee/optee_os/out/arm/export-ta_arm32/lib/libmpa.a(mpa_gcd.o)
 .group         0x00000000        0x8 /root/devel/optee/optee_os/out/arm/export-ta_arm32/lib/libmpa.a(mpa_gcd.o)
 .group         0x00000000        0x8 /root/devel/optee/optee_os/out/arm/export-ta_arm32/lib/libmpa.a(mpa_gcd.o)
 .group         0x00000000        0x8 /root/devel/optee/optee_os/out/arm/export-ta_arm32/lib/libmpa.a(mpa_gcd.o)
 .group         0x00000000        0x8 /root/devel/optee/optee_os/out/arm/export-ta_arm32/lib/libmpa.a(mpa_gcd.o)
 .group         0x00000000        0x8 /root/devel/optee/optee_os/out/arm/export-ta_arm32/lib/libmpa.a(mpa_gcd.o)
 .group         0x00000000        0x8 /root/devel/optee/optee_os/out/arm/export-ta_arm32/lib/libmpa.a(mpa_gcd.o)
 .group         0x00000000        0x8 /root/devel/optee/optee_os/out/arm/export-ta_arm32/lib/libmpa.a(mpa_gcd.o)
 .debug_macro   0x00000000      0x8bc /root/devel/optee/optee_os/out/arm/export-ta_arm32/lib/libmpa.a(mpa_gcd.o)
 .debug_macro   0x00000000      0x1ea /root/devel/optee/optee_os/out/arm/export-ta_arm32/lib/libmpa.a(mpa_gcd.o)
 .debug_macro   0x00000000       0x10 /root/devel/optee/optee_os/out/arm/export-ta_arm32/lib/libmpa.a(mpa_gcd.o)
 .debug_macro   0x00000000       0x7c /root/devel/optee/optee_os/out/arm/export-ta_arm32/lib/libmpa.a(mpa_gcd.o)
 .debug_macro   0x00000000      0x188 /root/devel/optee/optee_os/out/arm/export-ta_arm32/lib/libmpa.a(mpa_gcd.o)
 .debug_macro   0x00000000       0x22 /root/devel/optee/optee_os/out/arm/export-ta_arm32/lib/libmpa.a(mpa_gcd.o)
 .debug_macro   0x00000000       0x4c /root/devel/optee/optee_os/out/arm/export-ta_arm32/lib/libmpa.a(mpa_gcd.o)
 .debug_macro   0x00000000       0x8e /root/devel/optee/optee_os/out/arm/export-ta_arm32/lib/libmpa.a(mpa_gcd.o)
 .debug_macro   0x00000000      0x166 /root/devel/optee/optee_os/out/arm/export-ta_arm32/lib/libmpa.a(mpa_gcd.o)
 .debug_macro   0x00000000       0xca /root/devel/optee/optee_os/out/arm/export-ta_arm32/lib/libmpa.a(mpa_gcd.o)
 .debug_macro   0x00000000       0x10 /root/devel/optee/optee_os/out/arm/export-ta_arm32/lib/libmpa.a(mpa_gcd.o)
 .debug_macro   0x00000000       0x10 /root/devel/optee/optee_os/out/arm/export-ta_arm32/lib/libmpa.a(mpa_gcd.o)
 .debug_macro   0x00000000       0x16 /root/devel/optee/optee_os/out/arm/export-ta_arm32/lib/libmpa.a(mpa_gcd.o)
 .debug_macro   0x00000000       0x74 /root/devel/optee/optee_os/out/arm/export-ta_arm32/lib/libmpa.a(mpa_gcd.o)
 .debug_macro   0x00000000       0xa6 /root/devel/optee/optee_os/out/arm/export-ta_arm32/lib/libmpa.a(mpa_gcd.o)
 .group         0x00000000        0x8 /root/devel/optee/optee_os/out/arm/export-ta_arm32/lib/libmpa.a(mpa_mem_static.o)
 .group         0x00000000        0x8 /root/devel/optee/optee_os/out/arm/export-ta_arm32/lib/libmpa.a(mpa_mem_static.o)
 .group         0x00000000        0x8 /root/devel/optee/optee_os/out/arm/export-ta_arm32/lib/libmpa.a(mpa_mem_static.o)
 .group         0x00000000        0x8 /root/devel/optee/optee_os/out/arm/export-ta_arm32/lib/libmpa.a(mpa_mem_static.o)
 .group         0x00000000        0x8 /root/devel/optee/optee_os/out/arm/export-ta_arm32/lib/libmpa.a(mpa_mem_static.o)
 .group         0x00000000        0x8 /root/devel/optee/optee_os/out/arm/export-ta_arm32/lib/libmpa.a(mpa_mem_static.o)
 .group         0x00000000        0x8 /root/devel/optee/optee_os/out/arm/export-ta_arm32/lib/libmpa.a(mpa_mem_static.o)
 .group         0x00000000        0x8 /root/devel/optee/optee_os/out/arm/export-ta_arm32/lib/libmpa.a(mpa_mem_static.o)
 .group         0x00000000        0x8 /root/devel/optee/optee_os/out/arm/export-ta_arm32/lib/libmpa.a(mpa_mem_static.o)
 .group         0x00000000        0x8 /root/devel/optee/optee_os/out/arm/export-ta_arm32/lib/libmpa.a(mpa_mem_static.o)
 .group         0x00000000        0x8 /root/devel/optee/optee_os/out/arm/export-ta_arm32/lib/libmpa.a(mpa_mem_static.o)
 .group         0x00000000        0x8 /root/devel/optee/optee_os/out/arm/export-ta_arm32/lib/libmpa.a(mpa_mem_static.o)
 .group         0x00000000        0x8 /root/devel/optee/optee_os/out/arm/export-ta_arm32/lib/libmpa.a(mpa_mem_static.o)
 .group         0x00000000        0x8 /root/devel/optee/optee_os/out/arm/export-ta_arm32/lib/libmpa.a(mpa_mem_static.o)
 .group         0x00000000        0x8 /root/devel/optee/optee_os/out/arm/export-ta_arm32/lib/libmpa.a(mpa_mem_static.o)
 .group         0x00000000        0x8 /root/devel/optee/optee_os/out/arm/export-ta_arm32/lib/libmpa.a(mpa_mem_static.o)
 .group         0x00000000        0x8 /root/devel/optee/optee_os/out/arm/export-ta_arm32/lib/libmpa.a(mpa_mem_static.o)
 .group         0x00000000        0x8 /root/devel/optee/optee_os/out/arm/export-ta_arm32/lib/libmpa.a(mpa_mem_static.o)
 .debug_macro   0x00000000      0x8bc /root/devel/optee/optee_os/out/arm/export-ta_arm32/lib/libmpa.a(mpa_mem_static.o)
 .debug_macro   0x00000000      0x1ea /root/devel/optee/optee_os/out/arm/export-ta_arm32/lib/libmpa.a(mpa_mem_static.o)
 .debug_macro   0x00000000       0x10 /root/devel/optee/optee_os/out/arm/export-ta_arm32/lib/libmpa.a(mpa_mem_static.o)
 .debug_macro   0x00000000       0x7c /root/devel/optee/optee_os/out/arm/export-ta_arm32/lib/libmpa.a(mpa_mem_static.o)
 .debug_macro   0x00000000      0x188 /root/devel/optee/optee_os/out/arm/export-ta_arm32/lib/libmpa.a(mpa_mem_static.o)
 .debug_macro   0x00000000       0x22 /root/devel/optee/optee_os/out/arm/export-ta_arm32/lib/libmpa.a(mpa_mem_static.o)
 .debug_macro   0x00000000       0x4c /root/devel/optee/optee_os/out/arm/export-ta_arm32/lib/libmpa.a(mpa_mem_static.o)
 .debug_macro   0x00000000       0x8e /root/devel/optee/optee_os/out/arm/export-ta_arm32/lib/libmpa.a(mpa_mem_static.o)
 .debug_macro   0x00000000      0x166 /root/devel/optee/optee_os/out/arm/export-ta_arm32/lib/libmpa.a(mpa_mem_static.o)
 .debug_macro   0x00000000       0xca /root/devel/optee/optee_os/out/arm/export-ta_arm32/lib/libmpa.a(mpa_mem_static.o)
 .debug_macro   0x00000000       0x10 /root/devel/optee/optee_os/out/arm/export-ta_arm32/lib/libmpa.a(mpa_mem_static.o)
 .debug_macro   0x00000000       0x10 /root/devel/optee/optee_os/out/arm/export-ta_arm32/lib/libmpa.a(mpa_mem_static.o)
 .debug_macro   0x00000000       0x16 /root/devel/optee/optee_os/out/arm/export-ta_arm32/lib/libmpa.a(mpa_mem_static.o)
 .debug_macro   0x00000000       0x74 /root/devel/optee/optee_os/out/arm/export-ta_arm32/lib/libmpa.a(mpa_mem_static.o)
 .debug_macro   0x00000000       0xa6 /root/devel/optee/optee_os/out/arm/export-ta_arm32/lib/libmpa.a(mpa_mem_static.o)
 .debug_macro   0x00000000       0x46 /root/devel/optee/optee_os/out/arm/export-ta_arm32/lib/libmpa.a(mpa_mem_static.o)
 .debug_macro   0x00000000       0x34 /root/devel/optee/optee_os/out/arm/export-ta_arm32/lib/libmpa.a(mpa_mem_static.o)
 .debug_macro   0x00000000       0x7b /root/devel/optee/optee_os/out/arm/export-ta_arm32/lib/libmpa.a(mpa_mem_static.o)
 .group         0x00000000        0x8 /root/devel/optee/optee_os/out/arm/export-ta_arm32/lib/libmpa.a(mpa_mul.o)
 .group         0x00000000        0x8 /root/devel/optee/optee_os/out/arm/export-ta_arm32/lib/libmpa.a(mpa_mul.o)
 .group         0x00000000        0x8 /root/devel/optee/optee_os/out/arm/export-ta_arm32/lib/libmpa.a(mpa_mul.o)
 .group         0x00000000        0x8 /root/devel/optee/optee_os/out/arm/export-ta_arm32/lib/libmpa.a(mpa_mul.o)
 .group         0x00000000        0x8 /root/devel/optee/optee_os/out/arm/export-ta_arm32/lib/libmpa.a(mpa_mul.o)
 .group         0x00000000        0x8 /root/devel/optee/optee_os/out/arm/export-ta_arm32/lib/libmpa.a(mpa_mul.o)
 .group         0x00000000        0x8 /root/devel/optee/optee_os/out/arm/export-ta_arm32/lib/libmpa.a(mpa_mul.o)
 .group         0x00000000        0x8 /root/devel/optee/optee_os/out/arm/export-ta_arm32/lib/libmpa.a(mpa_mul.o)
 .group         0x00000000        0x8 /root/devel/optee/optee_os/out/arm/export-ta_arm32/lib/libmpa.a(mpa_mul.o)
 .group         0x00000000        0x8 /root/devel/optee/optee_os/out/arm/export-ta_arm32/lib/libmpa.a(mpa_mul.o)
 .group         0x00000000        0x8 /root/devel/optee/optee_os/out/arm/export-ta_arm32/lib/libmpa.a(mpa_mul.o)
 .group         0x00000000        0x8 /root/devel/optee/optee_os/out/arm/export-ta_arm32/lib/libmpa.a(mpa_mul.o)
 .group         0x00000000        0x8 /root/devel/optee/optee_os/out/arm/export-ta_arm32/lib/libmpa.a(mpa_mul.o)
 .group         0x00000000        0x8 /root/devel/optee/optee_os/out/arm/export-ta_arm32/lib/libmpa.a(mpa_mul.o)
 .group         0x00000000        0x8 /root/devel/optee/optee_os/out/arm/export-ta_arm32/lib/libmpa.a(mpa_mul.o)
 .debug_macro   0x00000000      0x8bc /root/devel/optee/optee_os/out/arm/export-ta_arm32/lib/libmpa.a(mpa_mul.o)
 .debug_macro   0x00000000      0x1ea /root/devel/optee/optee_os/out/arm/export-ta_arm32/lib/libmpa.a(mpa_mul.o)
 .debug_macro   0x00000000       0x10 /root/devel/optee/optee_os/out/arm/export-ta_arm32/lib/libmpa.a(mpa_mul.o)
 .debug_macro   0x00000000       0x7c /root/devel/optee/optee_os/out/arm/export-ta_arm32/lib/libmpa.a(mpa_mul.o)
 .debug_macro   0x00000000      0x188 /root/devel/optee/optee_os/out/arm/export-ta_arm32/lib/libmpa.a(mpa_mul.o)
 .debug_macro   0x00000000       0x22 /root/devel/optee/optee_os/out/arm/export-ta_arm32/lib/libmpa.a(mpa_mul.o)
 .debug_macro   0x00000000       0x4c /root/devel/optee/optee_os/out/arm/export-ta_arm32/lib/libmpa.a(mpa_mul.o)
 .debug_macro   0x00000000       0x8e /root/devel/optee/optee_os/out/arm/export-ta_arm32/lib/libmpa.a(mpa_mul.o)
 .debug_macro   0x00000000      0x166 /root/devel/optee/optee_os/out/arm/export-ta_arm32/lib/libmpa.a(mpa_mul.o)
 .debug_macro   0x00000000       0xca /root/devel/optee/optee_os/out/arm/export-ta_arm32/lib/libmpa.a(mpa_mul.o)
 .debug_macro   0x00000000       0x10 /root/devel/optee/optee_os/out/arm/export-ta_arm32/lib/libmpa.a(mpa_mul.o)
 .debug_macro   0x00000000       0x10 /root/devel/optee/optee_os/out/arm/export-ta_arm32/lib/libmpa.a(mpa_mul.o)
 .debug_macro   0x00000000       0x16 /root/devel/optee/optee_os/out/arm/export-ta_arm32/lib/libmpa.a(mpa_mul.o)
 .debug_macro   0x00000000       0x74 /root/devel/optee/optee_os/out/arm/export-ta_arm32/lib/libmpa.a(mpa_mul.o)
 .debug_macro   0x00000000       0xa6 /root/devel/optee/optee_os/out/arm/export-ta_arm32/lib/libmpa.a(mpa_mul.o)
 .group         0x00000000        0x8 /root/devel/optee/optee_os/out/arm/export-ta_arm32/lib/libmpa.a(mpa_random.o)
 .group         0x00000000        0x8 /root/devel/optee/optee_os/out/arm/export-ta_arm32/lib/libmpa.a(mpa_random.o)
 .group         0x00000000        0x8 /root/devel/optee/optee_os/out/arm/export-ta_arm32/lib/libmpa.a(mpa_random.o)
 .group         0x00000000        0x8 /root/devel/optee/optee_os/out/arm/export-ta_arm32/lib/libmpa.a(mpa_random.o)
 .group         0x00000000        0x8 /root/devel/optee/optee_os/out/arm/export-ta_arm32/lib/libmpa.a(mpa_random.o)
 .group         0x00000000        0x8 /root/devel/optee/optee_os/out/arm/export-ta_arm32/lib/libmpa.a(mpa_random.o)
 .group         0x00000000        0x8 /root/devel/optee/optee_os/out/arm/export-ta_arm32/lib/libmpa.a(mpa_random.o)
 .group         0x00000000        0x8 /root/devel/optee/optee_os/out/arm/export-ta_arm32/lib/libmpa.a(mpa_random.o)
 .group         0x00000000        0x8 /root/devel/optee/optee_os/out/arm/export-ta_arm32/lib/libmpa.a(mpa_random.o)
 .group         0x00000000        0x8 /root/devel/optee/optee_os/out/arm/export-ta_arm32/lib/libmpa.a(mpa_random.o)
 .group         0x00000000        0x8 /root/devel/optee/optee_os/out/arm/export-ta_arm32/lib/libmpa.a(mpa_random.o)
 .group         0x00000000        0x8 /root/devel/optee/optee_os/out/arm/export-ta_arm32/lib/libmpa.a(mpa_random.o)
 .group         0x00000000        0x8 /root/devel/optee/optee_os/out/arm/export-ta_arm32/lib/libmpa.a(mpa_random.o)
 .group         0x00000000        0x8 /root/devel/optee/optee_os/out/arm/export-ta_arm32/lib/libmpa.a(mpa_random.o)
 .group         0x00000000        0x8 /root/devel/optee/optee_os/out/arm/export-ta_arm32/lib/libmpa.a(mpa_random.o)
 .group         0x00000000        0x8 /root/devel/optee/optee_os/out/arm/export-ta_arm32/lib/libmpa.a(mpa_random.o)
 .group         0x00000000        0x8 /root/devel/optee/optee_os/out/arm/export-ta_arm32/lib/libmpa.a(mpa_random.o)
 .debug_macro   0x00000000      0x8bc /root/devel/optee/optee_os/out/arm/export-ta_arm32/lib/libmpa.a(mpa_random.o)
 .debug_macro   0x00000000      0x1ea /root/devel/optee/optee_os/out/arm/export-ta_arm32/lib/libmpa.a(mpa_random.o)
 .debug_macro   0x00000000       0x10 /root/devel/optee/optee_os/out/arm/export-ta_arm32/lib/libmpa.a(mpa_random.o)
 .debug_macro   0x00000000       0x7c /root/devel/optee/optee_os/out/arm/export-ta_arm32/lib/libmpa.a(mpa_random.o)
 .debug_macro   0x00000000      0x188 /root/devel/optee/optee_os/out/arm/export-ta_arm32/lib/libmpa.a(mpa_random.o)
 .debug_macro   0x00000000       0x22 /root/devel/optee/optee_os/out/arm/export-ta_arm32/lib/libmpa.a(mpa_random.o)
 .debug_macro   0x00000000       0x4c /root/devel/optee/optee_os/out/arm/export-ta_arm32/lib/libmpa.a(mpa_random.o)
 .debug_macro   0x00000000       0x8e /root/devel/optee/optee_os/out/arm/export-ta_arm32/lib/libmpa.a(mpa_random.o)
 .debug_macro   0x00000000      0x166 /root/devel/optee/optee_os/out/arm/export-ta_arm32/lib/libmpa.a(mpa_random.o)
 .debug_macro   0x00000000       0xca /root/devel/optee/optee_os/out/arm/export-ta_arm32/lib/libmpa.a(mpa_random.o)
 .debug_macro   0x00000000       0x10 /root/devel/optee/optee_os/out/arm/export-ta_arm32/lib/libmpa.a(mpa_random.o)
 .debug_macro   0x00000000       0x10 /root/devel/optee/optee_os/out/arm/export-ta_arm32/lib/libmpa.a(mpa_random.o)
 .debug_macro   0x00000000       0x16 /root/devel/optee/optee_os/out/arm/export-ta_arm32/lib/libmpa.a(mpa_random.o)
 .debug_macro   0x00000000       0x74 /root/devel/optee/optee_os/out/arm/export-ta_arm32/lib/libmpa.a(mpa_random.o)
 .debug_macro   0x00000000       0xa6 /root/devel/optee/optee_os/out/arm/export-ta_arm32/lib/libmpa.a(mpa_random.o)
 .debug_macro   0x00000000      0x908 /root/devel/optee/optee_os/out/arm/export-ta_arm32/lib/libmpa.a(mpa_random.o)
 .debug_macro   0x00000000       0x35 /root/devel/optee/optee_os/out/arm/export-ta_arm32/lib/libmpa.a(mpa_random.o)
 .group         0x00000000        0x8 /root/devel/optee/optee_os/out/arm/export-ta_arm32/lib/libmpa.a(mpa_shift.o)
 .group         0x00000000        0x8 /root/devel/optee/optee_os/out/arm/export-ta_arm32/lib/libmpa.a(mpa_shift.o)
 .group         0x00000000        0x8 /root/devel/optee/optee_os/out/arm/export-ta_arm32/lib/libmpa.a(mpa_shift.o)
 .group         0x00000000        0x8 /root/devel/optee/optee_os/out/arm/export-ta_arm32/lib/libmpa.a(mpa_shift.o)
 .group         0x00000000        0x8 /root/devel/optee/optee_os/out/arm/export-ta_arm32/lib/libmpa.a(mpa_shift.o)
 .group         0x00000000        0x8 /root/devel/optee/optee_os/out/arm/export-ta_arm32/lib/libmpa.a(mpa_shift.o)
 .group         0x00000000        0x8 /root/devel/optee/optee_os/out/arm/export-ta_arm32/lib/libmpa.a(mpa_shift.o)
 .group         0x00000000        0x8 /root/devel/optee/optee_os/out/arm/export-ta_arm32/lib/libmpa.a(mpa_shift.o)
 .group         0x00000000        0x8 /root/devel/optee/optee_os/out/arm/export-ta_arm32/lib/libmpa.a(mpa_shift.o)
 .group         0x00000000        0x8 /root/devel/optee/optee_os/out/arm/export-ta_arm32/lib/libmpa.a(mpa_shift.o)
 .group         0x00000000        0x8 /root/devel/optee/optee_os/out/arm/export-ta_arm32/lib/libmpa.a(mpa_shift.o)
 .group         0x00000000        0x8 /root/devel/optee/optee_os/out/arm/export-ta_arm32/lib/libmpa.a(mpa_shift.o)
 .group         0x00000000        0x8 /root/devel/optee/optee_os/out/arm/export-ta_arm32/lib/libmpa.a(mpa_shift.o)
 .group         0x00000000        0x8 /root/devel/optee/optee_os/out/arm/export-ta_arm32/lib/libmpa.a(mpa_shift.o)
 .group         0x00000000        0x8 /root/devel/optee/optee_os/out/arm/export-ta_arm32/lib/libmpa.a(mpa_shift.o)
 .debug_macro   0x00000000      0x8bc /root/devel/optee/optee_os/out/arm/export-ta_arm32/lib/libmpa.a(mpa_shift.o)
 .debug_macro   0x00000000      0x1ea /root/devel/optee/optee_os/out/arm/export-ta_arm32/lib/libmpa.a(mpa_shift.o)
 .debug_macro   0x00000000       0x10 /root/devel/optee/optee_os/out/arm/export-ta_arm32/lib/libmpa.a(mpa_shift.o)
 .debug_macro   0x00000000       0x7c /root/devel/optee/optee_os/out/arm/export-ta_arm32/lib/libmpa.a(mpa_shift.o)
 .debug_macro   0x00000000      0x188 /root/devel/optee/optee_os/out/arm/export-ta_arm32/lib/libmpa.a(mpa_shift.o)
 .debug_macro   0x00000000       0x22 /root/devel/optee/optee_os/out/arm/export-ta_arm32/lib/libmpa.a(mpa_shift.o)
 .debug_macro   0x00000000       0x4c /root/devel/optee/optee_os/out/arm/export-ta_arm32/lib/libmpa.a(mpa_shift.o)
 .debug_macro   0x00000000       0x8e /root/devel/optee/optee_os/out/arm/export-ta_arm32/lib/libmpa.a(mpa_shift.o)
 .debug_macro   0x00000000      0x166 /root/devel/optee/optee_os/out/arm/export-ta_arm32/lib/libmpa.a(mpa_shift.o)
 .debug_macro   0x00000000       0xca /root/devel/optee/optee_os/out/arm/export-ta_arm32/lib/libmpa.a(mpa_shift.o)
 .debug_macro   0x00000000       0x10 /root/devel/optee/optee_os/out/arm/export-ta_arm32/lib/libmpa.a(mpa_shift.o)
 .debug_macro   0x00000000       0x10 /root/devel/optee/optee_os/out/arm/export-ta_arm32/lib/libmpa.a(mpa_shift.o)
 .debug_macro   0x00000000       0x16 /root/devel/optee/optee_os/out/arm/export-ta_arm32/lib/libmpa.a(mpa_shift.o)
 .debug_macro   0x00000000       0x74 /root/devel/optee/optee_os/out/arm/export-ta_arm32/lib/libmpa.a(mpa_shift.o)
 .debug_macro   0x00000000       0xa6 /root/devel/optee/optee_os/out/arm/export-ta_arm32/lib/libmpa.a(mpa_shift.o)
 .group         0x00000000        0x8 /root/devel/optee/optee_os/out/arm/export-ta_arm32/lib/libmpa.a(mpa_addsub.o)
 .group         0x00000000        0x8 /root/devel/optee/optee_os/out/arm/export-ta_arm32/lib/libmpa.a(mpa_addsub.o)
 .group         0x00000000        0x8 /root/devel/optee/optee_os/out/arm/export-ta_arm32/lib/libmpa.a(mpa_addsub.o)
 .group         0x00000000        0x8 /root/devel/optee/optee_os/out/arm/export-ta_arm32/lib/libmpa.a(mpa_addsub.o)
 .group         0x00000000        0x8 /root/devel/optee/optee_os/out/arm/export-ta_arm32/lib/libmpa.a(mpa_addsub.o)
 .group         0x00000000        0x8 /root/devel/optee/optee_os/out/arm/export-ta_arm32/lib/libmpa.a(mpa_addsub.o)
 .group         0x00000000        0x8 /root/devel/optee/optee_os/out/arm/export-ta_arm32/lib/libmpa.a(mpa_addsub.o)
 .group         0x00000000        0x8 /root/devel/optee/optee_os/out/arm/export-ta_arm32/lib/libmpa.a(mpa_addsub.o)
 .group         0x00000000        0x8 /root/devel/optee/optee_os/out/arm/export-ta_arm32/lib/libmpa.a(mpa_addsub.o)
 .group         0x00000000        0x8 /root/devel/optee/optee_os/out/arm/export-ta_arm32/lib/libmpa.a(mpa_addsub.o)
 .group         0x00000000        0x8 /root/devel/optee/optee_os/out/arm/export-ta_arm32/lib/libmpa.a(mpa_addsub.o)
 .group         0x00000000        0x8 /root/devel/optee/optee_os/out/arm/export-ta_arm32/lib/libmpa.a(mpa_addsub.o)
 .group         0x00000000        0x8 /root/devel/optee/optee_os/out/arm/export-ta_arm32/lib/libmpa.a(mpa_addsub.o)
 .group         0x00000000        0x8 /root/devel/optee/optee_os/out/arm/export-ta_arm32/lib/libmpa.a(mpa_addsub.o)
 .group         0x00000000        0x8 /root/devel/optee/optee_os/out/arm/export-ta_arm32/lib/libmpa.a(mpa_addsub.o)
 .debug_macro   0x00000000      0x8bc /root/devel/optee/optee_os/out/arm/export-ta_arm32/lib/libmpa.a(mpa_addsub.o)
 .debug_macro   0x00000000      0x1ea /root/devel/optee/optee_os/out/arm/export-ta_arm32/lib/libmpa.a(mpa_addsub.o)
 .debug_macro   0x00000000       0x10 /root/devel/optee/optee_os/out/arm/export-ta_arm32/lib/libmpa.a(mpa_addsub.o)
 .debug_macro   0x00000000       0x7c /root/devel/optee/optee_os/out/arm/export-ta_arm32/lib/libmpa.a(mpa_addsub.o)
 .debug_macro   0x00000000      0x188 /root/devel/optee/optee_os/out/arm/export-ta_arm32/lib/libmpa.a(mpa_addsub.o)
 .debug_macro   0x00000000       0x22 /root/devel/optee/optee_os/out/arm/export-ta_arm32/lib/libmpa.a(mpa_addsub.o)
 .debug_macro   0x00000000       0x4c /root/devel/optee/optee_os/out/arm/export-ta_arm32/lib/libmpa.a(mpa_addsub.o)
 .debug_macro   0x00000000       0x8e /root/devel/optee/optee_os/out/arm/export-ta_arm32/lib/libmpa.a(mpa_addsub.o)
 .debug_macro   0x00000000      0x166 /root/devel/optee/optee_os/out/arm/export-ta_arm32/lib/libmpa.a(mpa_addsub.o)
 .debug_macro   0x00000000       0xca /root/devel/optee/optee_os/out/arm/export-ta_arm32/lib/libmpa.a(mpa_addsub.o)
 .debug_macro   0x00000000       0x10 /root/devel/optee/optee_os/out/arm/export-ta_arm32/lib/libmpa.a(mpa_addsub.o)
 .debug_macro   0x00000000       0x10 /root/devel/optee/optee_os/out/arm/export-ta_arm32/lib/libmpa.a(mpa_addsub.o)
 .debug_macro   0x00000000       0x16 /root/devel/optee/optee_os/out/arm/export-ta_arm32/lib/libmpa.a(mpa_addsub.o)
 .debug_macro   0x00000000       0x74 /root/devel/optee/optee_os/out/arm/export-ta_arm32/lib/libmpa.a(mpa_addsub.o)
 .debug_macro   0x00000000       0xa6 /root/devel/optee/optee_os/out/arm/export-ta_arm32/lib/libmpa.a(mpa_addsub.o)
 .group         0x00000000        0x8 /root/devel/optee/optee_os/out/arm/export-ta_arm32/lib/libmpa.a(mpa_cmp.o)
 .group         0x00000000        0x8 /root/devel/optee/optee_os/out/arm/export-ta_arm32/lib/libmpa.a(mpa_cmp.o)
 .group         0x00000000        0x8 /root/devel/optee/optee_os/out/arm/export-ta_arm32/lib/libmpa.a(mpa_cmp.o)
 .group         0x00000000        0x8 /root/devel/optee/optee_os/out/arm/export-ta_arm32/lib/libmpa.a(mpa_cmp.o)
 .group         0x00000000        0x8 /root/devel/optee/optee_os/out/arm/export-ta_arm32/lib/libmpa.a(mpa_cmp.o)
 .group         0x00000000        0x8 /root/devel/optee/optee_os/out/arm/export-ta_arm32/lib/libmpa.a(mpa_cmp.o)
 .group         0x00000000        0x8 /root/devel/optee/optee_os/out/arm/export-ta_arm32/lib/libmpa.a(mpa_cmp.o)
 .group         0x00000000        0x8 /root/devel/optee/optee_os/out/arm/export-ta_arm32/lib/libmpa.a(mpa_cmp.o)
 .group         0x00000000        0x8 /root/devel/optee/optee_os/out/arm/export-ta_arm32/lib/libmpa.a(mpa_cmp.o)
 .group         0x00000000        0x8 /root/devel/optee/optee_os/out/arm/export-ta_arm32/lib/libmpa.a(mpa_cmp.o)
 .group         0x00000000        0x8 /root/devel/optee/optee_os/out/arm/export-ta_arm32/lib/libmpa.a(mpa_cmp.o)
 .group         0x00000000        0x8 /root/devel/optee/optee_os/out/arm/export-ta_arm32/lib/libmpa.a(mpa_cmp.o)
 .group         0x00000000        0x8 /root/devel/optee/optee_os/out/arm/export-ta_arm32/lib/libmpa.a(mpa_cmp.o)
 .group         0x00000000        0x8 /root/devel/optee/optee_os/out/arm/export-ta_arm32/lib/libmpa.a(mpa_cmp.o)
 .group         0x00000000        0x8 /root/devel/optee/optee_os/out/arm/export-ta_arm32/lib/libmpa.a(mpa_cmp.o)
 .debug_macro   0x00000000      0x8bc /root/devel/optee/optee_os/out/arm/export-ta_arm32/lib/libmpa.a(mpa_cmp.o)
 .debug_macro   0x00000000      0x1ea /root/devel/optee/optee_os/out/arm/export-ta_arm32/lib/libmpa.a(mpa_cmp.o)
 .debug_macro   0x00000000       0x10 /root/devel/optee/optee_os/out/arm/export-ta_arm32/lib/libmpa.a(mpa_cmp.o)
 .debug_macro   0x00000000       0x7c /root/devel/optee/optee_os/out/arm/export-ta_arm32/lib/libmpa.a(mpa_cmp.o)
 .debug_macro   0x00000000      0x188 /root/devel/optee/optee_os/out/arm/export-ta_arm32/lib/libmpa.a(mpa_cmp.o)
 .debug_macro   0x00000000       0x22 /root/devel/optee/optee_os/out/arm/export-ta_arm32/lib/libmpa.a(mpa_cmp.o)
 .debug_macro   0x00000000       0x4c /root/devel/optee/optee_os/out/arm/export-ta_arm32/lib/libmpa.a(mpa_cmp.o)
 .debug_macro   0x00000000       0x8e /root/devel/optee/optee_os/out/arm/export-ta_arm32/lib/libmpa.a(mpa_cmp.o)
 .debug_macro   0x00000000      0x166 /root/devel/optee/optee_os/out/arm/export-ta_arm32/lib/libmpa.a(mpa_cmp.o)
 .debug_macro   0x00000000       0xca /root/devel/optee/optee_os/out/arm/export-ta_arm32/lib/libmpa.a(mpa_cmp.o)
 .debug_macro   0x00000000       0x10 /root/devel/optee/optee_os/out/arm/export-ta_arm32/lib/libmpa.a(mpa_cmp.o)
 .debug_macro   0x00000000       0x10 /root/devel/optee/optee_os/out/arm/export-ta_arm32/lib/libmpa.a(mpa_cmp.o)
 .debug_macro   0x00000000       0x16 /root/devel/optee/optee_os/out/arm/export-ta_arm32/lib/libmpa.a(mpa_cmp.o)
 .debug_macro   0x00000000       0x74 /root/devel/optee/optee_os/out/arm/export-ta_arm32/lib/libmpa.a(mpa_cmp.o)
 .debug_macro   0x00000000       0xa6 /root/devel/optee/optee_os/out/arm/export-ta_arm32/lib/libmpa.a(mpa_cmp.o)
 .group         0x00000000        0x8 /root/devel/optee/optee_os/out/arm/export-ta_arm32/lib/libmpa.a(mpa_expmod.o)
 .group         0x00000000        0x8 /root/devel/optee/optee_os/out/arm/export-ta_arm32/lib/libmpa.a(mpa_expmod.o)
 .group         0x00000000        0x8 /root/devel/optee/optee_os/out/arm/export-ta_arm32/lib/libmpa.a(mpa_expmod.o)
 .group         0x00000000        0x8 /root/devel/optee/optee_os/out/arm/export-ta_arm32/lib/libmpa.a(mpa_expmod.o)
 .group         0x00000000        0x8 /root/devel/optee/optee_os/out/arm/export-ta_arm32/lib/libmpa.a(mpa_expmod.o)
 .group         0x00000000        0x8 /root/devel/optee/optee_os/out/arm/export-ta_arm32/lib/libmpa.a(mpa_expmod.o)
 .group         0x00000000        0x8 /root/devel/optee/optee_os/out/arm/export-ta_arm32/lib/libmpa.a(mpa_expmod.o)
 .group         0x00000000        0x8 /root/devel/optee/optee_os/out/arm/export-ta_arm32/lib/libmpa.a(mpa_expmod.o)
 .group         0x00000000        0x8 /root/devel/optee/optee_os/out/arm/export-ta_arm32/lib/libmpa.a(mpa_expmod.o)
 .group         0x00000000        0x8 /root/devel/optee/optee_os/out/arm/export-ta_arm32/lib/libmpa.a(mpa_expmod.o)
 .group         0x00000000        0x8 /root/devel/optee/optee_os/out/arm/export-ta_arm32/lib/libmpa.a(mpa_expmod.o)
 .group         0x00000000        0x8 /root/devel/optee/optee_os/out/arm/export-ta_arm32/lib/libmpa.a(mpa_expmod.o)
 .group         0x00000000        0x8 /root/devel/optee/optee_os/out/arm/export-ta_arm32/lib/libmpa.a(mpa_expmod.o)
 .group         0x00000000        0x8 /root/devel/optee/optee_os/out/arm/export-ta_arm32/lib/libmpa.a(mpa_expmod.o)
 .group         0x00000000        0x8 /root/devel/optee/optee_os/out/arm/export-ta_arm32/lib/libmpa.a(mpa_expmod.o)
 .debug_macro   0x00000000      0x8bc /root/devel/optee/optee_os/out/arm/export-ta_arm32/lib/libmpa.a(mpa_expmod.o)
 .debug_macro   0x00000000      0x1ea /root/devel/optee/optee_os/out/arm/export-ta_arm32/lib/libmpa.a(mpa_expmod.o)
 .debug_macro   0x00000000       0x10 /root/devel/optee/optee_os/out/arm/export-ta_arm32/lib/libmpa.a(mpa_expmod.o)
 .debug_macro   0x00000000       0x7c /root/devel/optee/optee_os/out/arm/export-ta_arm32/lib/libmpa.a(mpa_expmod.o)
 .debug_macro   0x00000000      0x188 /root/devel/optee/optee_os/out/arm/export-ta_arm32/lib/libmpa.a(mpa_expmod.o)
 .debug_macro   0x00000000       0x22 /root/devel/optee/optee_os/out/arm/export-ta_arm32/lib/libmpa.a(mpa_expmod.o)
 .debug_macro   0x00000000       0x4c /root/devel/optee/optee_os/out/arm/export-ta_arm32/lib/libmpa.a(mpa_expmod.o)
 .debug_macro   0x00000000       0x8e /root/devel/optee/optee_os/out/arm/export-ta_arm32/lib/libmpa.a(mpa_expmod.o)
 .debug_macro   0x00000000      0x166 /root/devel/optee/optee_os/out/arm/export-ta_arm32/lib/libmpa.a(mpa_expmod.o)
 .debug_macro   0x00000000       0xca /root/devel/optee/optee_os/out/arm/export-ta_arm32/lib/libmpa.a(mpa_expmod.o)
 .debug_macro   0x00000000       0x10 /root/devel/optee/optee_os/out/arm/export-ta_arm32/lib/libmpa.a(mpa_expmod.o)
 .debug_macro   0x00000000       0x10 /root/devel/optee/optee_os/out/arm/export-ta_arm32/lib/libmpa.a(mpa_expmod.o)
 .debug_macro   0x00000000       0x16 /root/devel/optee/optee_os/out/arm/export-ta_arm32/lib/libmpa.a(mpa_expmod.o)
 .debug_macro   0x00000000       0x74 /root/devel/optee/optee_os/out/arm/export-ta_arm32/lib/libmpa.a(mpa_expmod.o)
 .debug_macro   0x00000000       0xa6 /root/devel/optee/optee_os/out/arm/export-ta_arm32/lib/libmpa.a(mpa_expmod.o)
 .group         0x00000000        0x8 /root/devel/optee/optee_os/out/arm/export-ta_arm32/lib/libmpa.a(mpa_init.o)
 .group         0x00000000        0x8 /root/devel/optee/optee_os/out/arm/export-ta_arm32/lib/libmpa.a(mpa_init.o)
 .group         0x00000000        0x8 /root/devel/optee/optee_os/out/arm/export-ta_arm32/lib/libmpa.a(mpa_init.o)
 .group         0x00000000        0x8 /root/devel/optee/optee_os/out/arm/export-ta_arm32/lib/libmpa.a(mpa_init.o)
 .group         0x00000000        0x8 /root/devel/optee/optee_os/out/arm/export-ta_arm32/lib/libmpa.a(mpa_init.o)
 .group         0x00000000        0x8 /root/devel/optee/optee_os/out/arm/export-ta_arm32/lib/libmpa.a(mpa_init.o)
 .group         0x00000000        0x8 /root/devel/optee/optee_os/out/arm/export-ta_arm32/lib/libmpa.a(mpa_init.o)
 .group         0x00000000        0x8 /root/devel/optee/optee_os/out/arm/export-ta_arm32/lib/libmpa.a(mpa_init.o)
 .group         0x00000000        0x8 /root/devel/optee/optee_os/out/arm/export-ta_arm32/lib/libmpa.a(mpa_init.o)
 .group         0x00000000        0x8 /root/devel/optee/optee_os/out/arm/export-ta_arm32/lib/libmpa.a(mpa_init.o)
 .group         0x00000000        0x8 /root/devel/optee/optee_os/out/arm/export-ta_arm32/lib/libmpa.a(mpa_init.o)
 .group         0x00000000        0x8 /root/devel/optee/optee_os/out/arm/export-ta_arm32/lib/libmpa.a(mpa_init.o)
 .group         0x00000000        0x8 /root/devel/optee/optee_os/out/arm/export-ta_arm32/lib/libmpa.a(mpa_init.o)
 .group         0x00000000        0x8 /root/devel/optee/optee_os/out/arm/export-ta_arm32/lib/libmpa.a(mpa_init.o)
 .group         0x00000000        0x8 /root/devel/optee/optee_os/out/arm/export-ta_arm32/lib/libmpa.a(mpa_init.o)
 .debug_macro   0x00000000      0x8bc /root/devel/optee/optee_os/out/arm/export-ta_arm32/lib/libmpa.a(mpa_init.o)
 .debug_macro   0x00000000      0x1ea /root/devel/optee/optee_os/out/arm/export-ta_arm32/lib/libmpa.a(mpa_init.o)
 .debug_macro   0x00000000       0x10 /root/devel/optee/optee_os/out/arm/export-ta_arm32/lib/libmpa.a(mpa_init.o)
 .debug_macro   0x00000000       0x7c /root/devel/optee/optee_os/out/arm/export-ta_arm32/lib/libmpa.a(mpa_init.o)
 .debug_macro   0x00000000      0x188 /root/devel/optee/optee_os/out/arm/export-ta_arm32/lib/libmpa.a(mpa_init.o)
 .debug_macro   0x00000000       0x22 /root/devel/optee/optee_os/out/arm/export-ta_arm32/lib/libmpa.a(mpa_init.o)
 .debug_macro   0x00000000       0x4c /root/devel/optee/optee_os/out/arm/export-ta_arm32/lib/libmpa.a(mpa_init.o)
 .debug_macro   0x00000000       0x8e /root/devel/optee/optee_os/out/arm/export-ta_arm32/lib/libmpa.a(mpa_init.o)
 .debug_macro   0x00000000      0x166 /root/devel/optee/optee_os/out/arm/export-ta_arm32/lib/libmpa.a(mpa_init.o)
 .debug_macro   0x00000000       0xca /root/devel/optee/optee_os/out/arm/export-ta_arm32/lib/libmpa.a(mpa_init.o)
 .debug_macro   0x00000000       0x10 /root/devel/optee/optee_os/out/arm/export-ta_arm32/lib/libmpa.a(mpa_init.o)
 .debug_macro   0x00000000       0x10 /root/devel/optee/optee_os/out/arm/export-ta_arm32/lib/libmpa.a(mpa_init.o)
 .debug_macro   0x00000000       0x16 /root/devel/optee/optee_os/out/arm/export-ta_arm32/lib/libmpa.a(mpa_init.o)
 .debug_macro   0x00000000       0x74 /root/devel/optee/optee_os/out/arm/export-ta_arm32/lib/libmpa.a(mpa_init.o)
 .debug_macro   0x00000000       0xa6 /root/devel/optee/optee_os/out/arm/export-ta_arm32/lib/libmpa.a(mpa_init.o)
 .group         0x00000000        0x8 /root/devel/optee/optee_os/out/arm/export-ta_arm32/lib/libmpa.a(mpa_io.o)
 .group         0x00000000        0x8 /root/devel/optee/optee_os/out/arm/export-ta_arm32/lib/libmpa.a(mpa_io.o)
 .group         0x00000000        0x8 /root/devel/optee/optee_os/out/arm/export-ta_arm32/lib/libmpa.a(mpa_io.o)
 .group         0x00000000        0x8 /root/devel/optee/optee_os/out/arm/export-ta_arm32/lib/libmpa.a(mpa_io.o)
 .group         0x00000000        0x8 /root/devel/optee/optee_os/out/arm/export-ta_arm32/lib/libmpa.a(mpa_io.o)
 .group         0x00000000        0x8 /root/devel/optee/optee_os/out/arm/export-ta_arm32/lib/libmpa.a(mpa_io.o)
 .group         0x00000000        0x8 /root/devel/optee/optee_os/out/arm/export-ta_arm32/lib/libmpa.a(mpa_io.o)
 .group         0x00000000        0x8 /root/devel/optee/optee_os/out/arm/export-ta_arm32/lib/libmpa.a(mpa_io.o)
 .group         0x00000000        0x8 /root/devel/optee/optee_os/out/arm/export-ta_arm32/lib/libmpa.a(mpa_io.o)
 .group         0x00000000        0x8 /root/devel/optee/optee_os/out/arm/export-ta_arm32/lib/libmpa.a(mpa_io.o)
 .group         0x00000000        0x8 /root/devel/optee/optee_os/out/arm/export-ta_arm32/lib/libmpa.a(mpa_io.o)
 .group         0x00000000        0x8 /root/devel/optee/optee_os/out/arm/export-ta_arm32/lib/libmpa.a(mpa_io.o)
 .group         0x00000000        0x8 /root/devel/optee/optee_os/out/arm/export-ta_arm32/lib/libmpa.a(mpa_io.o)
 .group         0x00000000        0x8 /root/devel/optee/optee_os/out/arm/export-ta_arm32/lib/libmpa.a(mpa_io.o)
 .group         0x00000000        0x8 /root/devel/optee/optee_os/out/arm/export-ta_arm32/lib/libmpa.a(mpa_io.o)
 .group         0x00000000        0x8 /root/devel/optee/optee_os/out/arm/export-ta_arm32/lib/libmpa.a(mpa_io.o)
 .debug_macro   0x00000000      0x8bc /root/devel/optee/optee_os/out/arm/export-ta_arm32/lib/libmpa.a(mpa_io.o)
 .debug_macro   0x00000000      0x1ea /root/devel/optee/optee_os/out/arm/export-ta_arm32/lib/libmpa.a(mpa_io.o)
 .debug_macro   0x00000000       0x10 /root/devel/optee/optee_os/out/arm/export-ta_arm32/lib/libmpa.a(mpa_io.o)
 .debug_macro   0x00000000       0x7c /root/devel/optee/optee_os/out/arm/export-ta_arm32/lib/libmpa.a(mpa_io.o)
 .debug_macro   0x00000000      0x188 /root/devel/optee/optee_os/out/arm/export-ta_arm32/lib/libmpa.a(mpa_io.o)
 .debug_macro   0x00000000       0x22 /root/devel/optee/optee_os/out/arm/export-ta_arm32/lib/libmpa.a(mpa_io.o)
 .debug_macro   0x00000000       0x4c /root/devel/optee/optee_os/out/arm/export-ta_arm32/lib/libmpa.a(mpa_io.o)
 .debug_macro   0x00000000       0x8e /root/devel/optee/optee_os/out/arm/export-ta_arm32/lib/libmpa.a(mpa_io.o)
 .debug_macro   0x00000000      0x166 /root/devel/optee/optee_os/out/arm/export-ta_arm32/lib/libmpa.a(mpa_io.o)
 .debug_macro   0x00000000       0xca /root/devel/optee/optee_os/out/arm/export-ta_arm32/lib/libmpa.a(mpa_io.o)
 .debug_macro   0x00000000       0x10 /root/devel/optee/optee_os/out/arm/export-ta_arm32/lib/libmpa.a(mpa_io.o)
 .debug_macro   0x00000000       0x10 /root/devel/optee/optee_os/out/arm/export-ta_arm32/lib/libmpa.a(mpa_io.o)
 .debug_macro   0x00000000       0x16 /root/devel/optee/optee_os/out/arm/export-ta_arm32/lib/libmpa.a(mpa_io.o)
 .debug_macro   0x00000000       0x74 /root/devel/optee/optee_os/out/arm/export-ta_arm32/lib/libmpa.a(mpa_io.o)
 .debug_macro   0x00000000       0xa6 /root/devel/optee/optee_os/out/arm/export-ta_arm32/lib/libmpa.a(mpa_io.o)
 .debug_macro   0x00000000       0x16 /root/devel/optee/optee_os/out/arm/export-ta_arm32/lib/libmpa.a(mpa_io.o)
 .group         0x00000000        0x8 /root/devel/optee/optee_os/out/arm/export-ta_arm32/lib/libmpa.a(mpa_modulus.o)
 .group         0x00000000        0x8 /root/devel/optee/optee_os/out/arm/export-ta_arm32/lib/libmpa.a(mpa_modulus.o)
 .group         0x00000000        0x8 /root/devel/optee/optee_os/out/arm/export-ta_arm32/lib/libmpa.a(mpa_modulus.o)
 .group         0x00000000        0x8 /root/devel/optee/optee_os/out/arm/export-ta_arm32/lib/libmpa.a(mpa_modulus.o)
 .group         0x00000000        0x8 /root/devel/optee/optee_os/out/arm/export-ta_arm32/lib/libmpa.a(mpa_modulus.o)
 .group         0x00000000        0x8 /root/devel/optee/optee_os/out/arm/export-ta_arm32/lib/libmpa.a(mpa_modulus.o)
 .group         0x00000000        0x8 /root/devel/optee/optee_os/out/arm/export-ta_arm32/lib/libmpa.a(mpa_modulus.o)
 .group         0x00000000        0x8 /root/devel/optee/optee_os/out/arm/export-ta_arm32/lib/libmpa.a(mpa_modulus.o)
 .group         0x00000000        0x8 /root/devel/optee/optee_os/out/arm/export-ta_arm32/lib/libmpa.a(mpa_modulus.o)
 .group         0x00000000        0x8 /root/devel/optee/optee_os/out/arm/export-ta_arm32/lib/libmpa.a(mpa_modulus.o)
 .group         0x00000000        0x8 /root/devel/optee/optee_os/out/arm/export-ta_arm32/lib/libmpa.a(mpa_modulus.o)
 .group         0x00000000        0x8 /root/devel/optee/optee_os/out/arm/export-ta_arm32/lib/libmpa.a(mpa_modulus.o)
 .group         0x00000000        0x8 /root/devel/optee/optee_os/out/arm/export-ta_arm32/lib/libmpa.a(mpa_modulus.o)
 .group         0x00000000        0x8 /root/devel/optee/optee_os/out/arm/export-ta_arm32/lib/libmpa.a(mpa_modulus.o)
 .group         0x00000000        0x8 /root/devel/optee/optee_os/out/arm/export-ta_arm32/lib/libmpa.a(mpa_modulus.o)
 .debug_macro   0x00000000      0x8bc /root/devel/optee/optee_os/out/arm/export-ta_arm32/lib/libmpa.a(mpa_modulus.o)
 .debug_macro   0x00000000      0x1ea /root/devel/optee/optee_os/out/arm/export-ta_arm32/lib/libmpa.a(mpa_modulus.o)
 .debug_macro   0x00000000       0x10 /root/devel/optee/optee_os/out/arm/export-ta_arm32/lib/libmpa.a(mpa_modulus.o)
 .debug_macro   0x00000000       0x7c /root/devel/optee/optee_os/out/arm/export-ta_arm32/lib/libmpa.a(mpa_modulus.o)
 .debug_macro   0x00000000      0x188 /root/devel/optee/optee_os/out/arm/export-ta_arm32/lib/libmpa.a(mpa_modulus.o)
 .debug_macro   0x00000000       0x22 /root/devel/optee/optee_os/out/arm/export-ta_arm32/lib/libmpa.a(mpa_modulus.o)
 .debug_macro   0x00000000       0x4c /root/devel/optee/optee_os/out/arm/export-ta_arm32/lib/libmpa.a(mpa_modulus.o)
 .debug_macro   0x00000000       0x8e /root/devel/optee/optee_os/out/arm/export-ta_arm32/lib/libmpa.a(mpa_modulus.o)
 .debug_macro   0x00000000      0x166 /root/devel/optee/optee_os/out/arm/export-ta_arm32/lib/libmpa.a(mpa_modulus.o)
 .debug_macro   0x00000000       0xca /root/devel/optee/optee_os/out/arm/export-ta_arm32/lib/libmpa.a(mpa_modulus.o)
 .debug_macro   0x00000000       0x10 /root/devel/optee/optee_os/out/arm/export-ta_arm32/lib/libmpa.a(mpa_modulus.o)
 .debug_macro   0x00000000       0x10 /root/devel/optee/optee_os/out/arm/export-ta_arm32/lib/libmpa.a(mpa_modulus.o)
 .debug_macro   0x00000000       0x16 /root/devel/optee/optee_os/out/arm/export-ta_arm32/lib/libmpa.a(mpa_modulus.o)
 .debug_macro   0x00000000       0x74 /root/devel/optee/optee_os/out/arm/export-ta_arm32/lib/libmpa.a(mpa_modulus.o)
 .debug_macro   0x00000000       0xa6 /root/devel/optee/optee_os/out/arm/export-ta_arm32/lib/libmpa.a(mpa_modulus.o)



                                     
*default*        0x00000000         0xffffffff

Linker script and memory map


.ta_head        0x00000000       0x20
 *(SORT(.ta_head))
 .ta_head       0x00000000       0x20 ./user_ta_header.o
                0x00000000                ta_head

.text           0x00000020     0x51f0
 *(SORT(.text) SORT(.text.*))
 .text          0x00000020       0x78 ./hello_world_ta.o
                0x00000020                TA_CreateEntryPoint
                0x00000024                TA_DestroyEntryPoint
                0x00000026                TA_OpenSessionEntryPoint
                0x00000058                TA_CloseSessionEntryPoint
                0x00000080                TA_InvokeCommandEntryPoint
 .text          0x00000098      0x248 /root/devel/optee/optee_os/out/arm/export-ta_arm32/lib/libutee.a(user_ta_entry.o)
                0x0000011c                __utee_entry
 .text          0x000002e0      0x5d0 /root/devel/optee/optee_os/out/arm/export-ta_arm32/lib/libutee.a(utee_syscalls_a32.o)
                0x000002e0                utee_return
                0x000002f4                utee_log
                0x00000308                utee_panic
                0x0000031c                utee_get_property
                0x00000334                utee_get_property_name_to_index
                0x00000348                utee_open_ta_session
                0x00000360                utee_close_ta_session
                0x00000374                utee_invoke_ta_command
                0x0000038c                utee_get_cancellation_flag
                0x000003a0                utee_check_access_rights
                0x000003b4                utee_unmask_cancellation
                0x000003c8                utee_mask_cancellation
                0x000003dc                utee_wait
                0x000003f0                utee_get_time
                0x00000404                utee_set_ta_time
                0x00000418                utee_cryp_state_alloc
                0x00000430                utee_cryp_state_copy
                0x00000444                utee_cryp_state_free
                0x00000458                utee_hash_init
                0x0000046c                utee_hash_update
                0x00000480                utee_hash_final
                0x00000498                utee_cipher_init
                0x000004ac                utee_cipher_update
                0x000004c4                utee_cipher_final
                0x000004dc                utee_cryp_obj_get_info
                0x000004f0                utee_cryp_obj_restrict_usage
                0x00000504                utee_cryp_obj_get_attr
                0x00000518                utee_cryp_obj_alloc
                0x0000052c                utee_cryp_obj_close
                0x00000540                utee_cryp_obj_reset
                0x00000554                utee_cryp_obj_populate
                0x00000568                utee_cryp_obj_copy
                0x0000057c                utee_cryp_derive_key
                0x00000590                utee_cryp_random_number_generate
                0x000005a4                utee_authenc_init
                0x000005bc                utee_authenc_update_aad
                0x000005d0                utee_authenc_update_payload
                0x000005e8                utee_authenc_enc_final
                0x00000600                utee_authenc_dec_final
                0x00000618                utee_asymm_operate
                0x00000630                utee_asymm_verify
                0x00000648                utee_storage_obj_open
                0x00000660                utee_storage_obj_create
                0x00000678                utee_storage_obj_del
                0x0000068c                utee_storage_obj_rename
                0x000006a0                utee_storage_alloc_enum
                0x000006b4                utee_storage_free_enum
                0x000006c8                utee_storage_reset_enum
                0x000006dc                utee_storage_start_enum
                0x000006f0                utee_storage_next_enum
                0x00000704                utee_storage_obj_read
                0x00000718                utee_storage_obj_write
                0x0000072c                utee_storage_obj_trunc
                0x00000740                utee_storage_obj_seek
                0x00000754                utee_cryp_obj_generate_key
                0x00000768                utee_se_service_open
                0x0000077c                utee_se_service_close
                0x00000790                utee_se_service_get_readers
                0x000007a4                utee_se_reader_get_prop
                0x000007b8                utee_se_reader_get_name
                0x000007cc                utee_se_reader_open_session
                0x000007e0                utee_se_reader_close_sessions
                0x000007f4                utee_se_session_is_closed
                0x00000808                utee_se_session_get_atr
                0x0000081c                utee_se_session_open_channel
                0x00000834                utee_se_session_close
                0x00000848                utee_se_channel_select_next
                0x0000085c                utee_se_channel_get_select_resp
                0x00000870                utee_se_channel_transmit
                0x00000888                utee_se_channel_close
                0x0000089c                utee_cache_operation
 .text          0x000008b0      0x480 /root/devel/optee/optee_os/out/arm/export-ta_arm32/lib/libutee.a(tee_api_arith.o)
                0x000008b0                _TEE_MathAPI_Init
                0x000008e4                TEE_BigIntInit
                0x000008e8                TEE_BigIntInitFMM
                0x000008f6                TEE_BigIntInitFMMContext
                0x0000091c                TEE_BigIntFMMSizeInU32
                0x00000924                TEE_BigIntFMMContextSizeInU32
                0x0000092e                TEE_BigIntConvertFromOctetString
                0x00000944                TEE_BigIntConvertToOctetString
                0x0000099c                TEE_BigIntConvertFromS32
                0x000009a0                TEE_BigIntConvertToS32
                0x000009b4                TEE_BigIntCmp
                0x000009b8                TEE_BigIntCmpS32
                0x000009bc                TEE_BigIntShiftRight
                0x000009c0                TEE_BigIntGetBit
                0x000009ce                TEE_BigIntGetBitCount
                0x000009d8                TEE_BigIntAdd
                0x000009e4                TEE_BigIntSub
                0x000009f0                TEE_BigIntNeg
                0x000009f4                TEE_BigIntMul
                0x00000a00                TEE_BigIntSquare
                0x00000a10                TEE_BigIntDiv
                0x00000a4c                TEE_BigIntMod
                0x00000aa4                TEE_BigIntAddMod
                0x00000b04                TEE_BigIntSubMod
                0x00000b64                TEE_BigIntMulMod
                0x00000be0                TEE_BigIntSquareMod
                0x00000be8                TEE_BigIntInvMod
                0x00000c2c                TEE_BigIntRelativePrime
                0x00000c6c                TEE_BigIntComputeExtendedGcd
                0x00000c84                TEE_BigIntIsProbablePrime
                0x00000ca4                TEE_BigIntConvertToFMM
                0x00000cc4                TEE_BigIntConvertFromFMM
                0x00000d14                TEE_BigIntComputeFMM
 .text.unlikely
                0x00000d30       0x3c /root/devel/optee/optee_os/out/arm/export-ta_arm32/lib/libutee.a(tee_api_arith.o)
 .text          0x00000d6c      0x3fc /root/devel/optee/optee_os/out/arm/export-ta_arm32/lib/libutee.a(tee_api.o)
                0x00000d6c                __utee_from_param
                0x00000dc6                __utee_to_param
                0x00000e08                TEE_OpenTASession
                0x00000e4c                TEE_CloseTASession
                0x00000e88                TEE_InvokeTACommand
                0x00000f0c                TEE_GetCancellationFlag
                0x00000f28                TEE_UnmaskCancellation
                0x00000f68                TEE_MaskCancellation
                0x00000fa8                TEE_CheckMemoryAccessRights
                0x00000fb2                TEE_SetInstanceData
                0x00000fc0                TEE_GetInstanceData
                0x00000fcc                TEE_MemMove
                0x00000fd0                TEE_MemCompare
                0x00000fd4                TEE_MemFill
                0x00000fd8                TEE_GetSystemTime
                0x00001018                TEE_Wait
                0x0000105c                TEE_GetTAPersistentTime
                0x000010bc                TEE_SetTAPersistentTime
                0x00001108                TEE_GetREETime
                0x00001148                TEE_Malloc
                0x0000114c                TEE_Realloc
                0x00001150                TEE_Free
                0x00001154                TEE_CacheClean
                0x0000115a                TEE_CacheFlush
                0x00001160                TEE_CacheInvalidate
 .text          0x00001168      0x410 /root/devel/optee/optee_os/out/arm/export-ta_arm32/lib/libutee.a(tee_user_mem.o)
                0x00001244                tee_user_mem_alloc
                0x00001310                tee_user_mem_free
                0x000013f4                tee_user_mem_realloc
                0x0000145c                tee_user_mem_mark_heap
                0x0000146c                tee_user_mem_check_heap
                0x000014dc                tee_user_mem_garbage
 .text          0x00001578       0xac /root/devel/optee/optee_os/out/arm/export-ta_arm32/lib/libutee.a(trace_ext.o)
                0x00001578                trace_ext_puts
                0x0000158c                trace_ext_get_thread_id
                0x00001592                puts
                0x000015a8                printf
 .text          0x00001624       0x38 /root/devel/optee/optee_os/out/arm/export-ta_arm32/lib/libutee.a(assert.o)
                0x00001624                _assert_log
                0x00001650                _assert_break
 .text          0x0000165c      0x968 /root/devel/optee/optee_os/out/arm/export-ta_arm32/lib/libutils.a(bget_malloc.o)
                0x00001720                bget
                0x00001838                bgetz
                0x00001884                brel
                0x00001a20                bgetr
                0x00001a74                bpool
                0x00001afc                bstats
                0x00001b64                malloc_reset_max_allocated
                0x00001b74                malloc_get_max_allocated
                0x00001b80                malloc_get_allocated
                0x00001b8c                malloc_get_heap_size
                0x00001bb0                malloc
                0x00001bc6                free
                0x00001bce                calloc
                0x00001bf6                realloc
                0x00001c0c                memalign
                0x00001e40                malloc_add_pool
                0x00001ecc                malloc_buffer_is_within_alloced
                0x00001f84                malloc_buffer_overlaps_heap
 .text          0x00001fc4      0x790 /root/devel/optee/optee_os/out/arm/export-ta_arm32/lib/libutils.a(snprintk.o)
                0x00001fc4                __vsnprintf
                0x0000272c                vsnprintk
                0x0000273a                snprintk
 .text          0x00002754      0x2c8 /root/devel/optee/optee_os/out/arm/export-ta_arm32/lib/libutils.a(trace.o)
                0x000027a2                trace_set_level
                0x000027c0                trace_get_level
                0x000027d4                trace_printf
                0x0000290c                dhex_dump
 .text          0x00002a1c       0x30 /root/devel/optee/optee_os/out/arm/export-ta_arm32/lib/libutils.a(arm32_aeabi_ldivmod_a32.o)
                0x00002a1c                __aeabi_ldivmod
                0x00002a34                __aeabi_uldivmod
 .text          0x00002a4c       0xe4 /root/devel/optee/optee_os/out/arm/export-ta_arm32/lib/libmpa.a(mpa_misc.o)
                0x00002a4c                __mpa_set_unused_digits_to_zero
                0x00002a66                mpa_wipe
                0x00002a7c                mpa_copy
                0x00002a9e                mpa_abs
                0x00002ab2                mpa_highest_bit_index
                0x00002ade                mpa_get_bit
                0x00002b08                mpa_can_hold
                0x00002b1c                mpa_parity
                0x00002b24                mpa_constant_one
 .text          0x00002b30      0x274 /root/devel/optee/optee_os/out/arm/export-ta_arm32/lib/libmpa.a(mpa_montgomery.o)
                0x00002b30                __mpa_montgomery_mul_add
                0x00002b8e                __mpa_montgomery_sub_ack
                0x00002bea                __mpa_montgomery_mul
                0x00002c98                mpa_compute_fmm_context
                0x00002d68                mpa_montgomery_mul
 .text          0x00002da4      0x274 /root/devel/optee/optee_os/out/arm/export-ta_arm32/lib/libmpa.a(mpa_primetest.o)
                0x00002da4                mpa_is_prob_prime
 .text          0x00003018       0xb0 /root/devel/optee/optee_os/out/arm/export-ta_arm32/lib/libmpa.a(mpa_random.o)
                0x00003018                mpa_set_random_generator
                0x00003024                mpa_get_random
 .text          0x000030c8       0xec /root/devel/optee/optee_os/out/arm/export-ta_arm32/lib/libmpa.a(mpa_expmod.o)
                0x000030c8                mpa_exp_mod
 .text          0x000031b4      0x468 /root/devel/optee/optee_os/out/arm/export-ta_arm32/lib/libmpa.a(mpa_io.o)
                0x000032a4                mpa_get_str_size
                0x000032aa                mpa_set_str
                0x00003468                mpa_get_str
                0x000034b0                mpa_set_oct_str
                0x0000354a                mpa_get_oct_str
 .text          0x0000361c        0x4 ./user_ta_header.o
                0x0000361c                tahead_get_trace_level
 .text          0x00003620        0xc /root/devel/optee/optee_os/out/arm/export-ta_arm32/lib/libutee.a(tee_api_panic.o)
                0x00003620                __TEE_Panic
                0x00003626                TEE_Panic
 .text          0x0000362c       0x1e /root/devel/optee/optee_os/out/arm/export-ta_arm32/lib/libutee.a(utee_misc.o)
                0x0000362c                utee_get_ta_exec_id
                0x00003630                utee_malloc
                0x00003634                utee_realloc
                0x00003638                utee_calloc
                0x00003642                utee_free
                0x00003646                get_rng_array
 .text          0x0000364a       0x2c /root/devel/optee/optee_os/out/arm/export-ta_arm32/lib/libutils.a(snprintf.o)
                0x0000364a                snprintf
                0x00003668                vsnprintf
 .text          0x00003676       0x20 /root/devel/optee/optee_os/out/arm/export-ta_arm32/lib/libutils.a(memcmp.o)
                0x00003676                memcmp
 .text          0x00003696       0x16 /root/devel/optee/optee_os/out/arm/export-ta_arm32/lib/libutils.a(memcpy.o)
                0x00003696                memcpy
 .text          0x000036ac       0x36 /root/devel/optee/optee_os/out/arm/export-ta_arm32/lib/libutils.a(memmove.o)
                0x000036ac                memmove
 .text          0x000036e2       0x10 /root/devel/optee/optee_os/out/arm/export-ta_arm32/lib/libutils.a(memset.o)
                0x000036e2                memset
 .text          0x000036f2       0x10 /root/devel/optee/optee_os/out/arm/export-ta_arm32/lib/libutils.a(strlen.o)
                0x000036f2                strlen
 .text          0x00003702       0x2a /root/devel/optee/optee_os/out/arm/export-ta_arm32/lib/libutils.a(strlcpy.o)
                0x00003702                strlcpy
 .text          0x0000372c       0x1c /root/devel/optee/optee_os/out/arm/export-ta_arm32/lib/libutils.a(memchr.o)
                0x0000372c                memchr
 .text          0x00003748      0x142 /root/devel/optee/optee_os/out/arm/export-ta_arm32/lib/libutils.a(arm32_aeabi_ldivmod.o)
                0x00003748                __ul_divmod
                0x000037ba                __l_divmod
 .text          0x0000388a       0x76 /root/devel/optee/optee_os/out/arm/export-ta_arm32/lib/libmpa.a(mpa_conv.o)
                0x0000388a                mpa_set_S32
                0x000038a6                mpa_get_S32
                0x000038e8                mpa_set_word
                0x000038f4                mpa_get_word
 .text          0x00003900      0x5ac /root/devel/optee/optee_os/out/arm/export-ta_arm32/lib/libmpa.a(mpa_div.o)
                0x00003900                __mpa_div_dword
                0x0000395a                __mpa_div_q_r_internal_word
                0x00003a18                __mpa_div_q_r
                0x00003e1e                mpa_div
 .text          0x00003eac      0x54e /root/devel/optee/optee_os/out/arm/export-ta_arm32/lib/libmpa.a(mpa_gcd.o)
                0x00004214                mpa_gcd
                0x000042bc                mpa_extended_gcd
 .text          0x000043fa       0xd6 /root/devel/optee/optee_os/out/arm/export-ta_arm32/lib/libmpa.a(mpa_mem_static.o)
                0x000043fa                mpa_init_scratch_mem_sync
                0x00004410                mpa_init_scratch_mem
                0x00004422                mpa_alloc_static_temp_var_size
                0x00004498                mpa_alloc_static_temp_var
                0x000044a2                mpa_free_static_temp_var
 .text          0x000044d0      0x204 /root/devel/optee/optee_os/out/arm/export-ta_arm32/lib/libmpa.a(mpa_mul.o)
                0x000044d0                __mpa_mul_add_word
                0x000044e0                __mpa_mul_add_word_cum
                0x000044f8                __mpa_abs_mul_word
                0x0000454e                __mpa_abs_mul
                0x000045e2                mpa_mul
                0x00004666                mpa_mul_word
 .text          0x000046d4      0x26a /root/devel/optee/optee_os/out/arm/export-ta_arm32/lib/libmpa.a(mpa_shift.o)
                0x000046d4                __mpa_shift_words_left
                0x00004726                __mpa_shift_words_right
                0x0000476c                mpa_shift_left
                0x0000486a                mpa_shift_right
 .text          0x0000493e      0x5b0 /root/devel/optee/optee_os/out/arm/export-ta_arm32/lib/libmpa.a(mpa_addsub.o)
                0x0000493e                __mpa_full_adder
                0x00004960                __mpa_full_sub
                0x00004978                __mpa_full_adder_ackum
                0x00004992                __mpa_abs_add
                0x00004a3e                __mpa_abs_add_ackum
                0x00004ab4                __mpa_abs_sub
                0x00004b48                mpa_add
                0x00004c3e                mpa_sub
                0x00004d44                mpa_neg
                0x00004d54                mpa_add_word
                0x00004e1c                mpa_sub_word
 .text          0x00004eee      0x10e /root/devel/optee/optee_os/out/arm/export-ta_arm32/lib/libmpa.a(mpa_cmp.o)
                0x00004eee                __mpa_abs_cmp
                0x00004f44                __mpa_abs_greater_than
                0x00004f54                __mpa_abs_less_than
                0x00004f5e                mpa_cmp
                0x00004fa4                mpa_cmp_short
 .text          0x00004ffc       0x4a /root/devel/optee/optee_os/out/arm/export-ta_arm32/lib/libmpa.a(mpa_init.o)
                0x00004ffc                mpa_init_static
                0x0000500e                mpa_init_static_fmm_context
 .text          0x00005046      0x186 /root/devel/optee/optee_os/out/arm/export-ta_arm32/lib/libmpa.a(mpa_modulus.o)
                0x00005046                mpa_mod
                0x0000505c                mpa_add_mod
                0x0000509e                mpa_sub_mod
                0x000050e0                mpa_mul_mod
                0x00005122                mpa_inv_mod
 *fill*         0x000051cc        0x4 
 .text.__stub   0x000051d0       0x40 linker stubs
 *(SORT(.stub))
 *(SORT(.glue_7))
 .glue_7        0x00000000        0x0 linker stubs
 *(SORT(.glue_7t))
 .glue_7t       0x00000000        0x0 linker stubs
 *(SORT(.gnu.linkonce.t.*))
 *(SORT(.vfp11_veneer))
 .vfp11_veneer  0x00000000        0x0 linker stubs

.v4_bx          0x00005210        0x0
 .v4_bx         0x00000000        0x0 linker stubs

.iplt           0x00005210        0x0
 .iplt          0x00000000        0x0 ./hello_world_ta.o

.eh_frame
 *(SORT(.eh_frame))

.rodata         0x00005210     0x16b6
 *(SORT(.gnu.linkonce.r.*))
 *(SORT(.rodata) SORT(.rodata.*))
 .rodata.user_ta_header.c
                0x00005210       0x20 ./user_ta_header.o
                0x00005210                ta_num_props
                0x00005224                ta_heap_size
                0x00005228                trace_ext_prefix
 .rodata.lib/libmpa/mpa_misc.c
                0x00005230       0x28 /root/devel/optee/optee_os/out/arm/export-ta_arm32/lib/libmpa.a(mpa_misc.o)
                0x00005230                const_one
                0x0000523c                Const_1_LShift_Base
                0x0000524c                const_largest_deci_base
 .rodata.lib/libmpa/mpa_primetest.c
                0x00005258      0xd30 /root/devel/optee/optee_os/out/arm/export-ta_arm32/lib/libmpa.a(mpa_primetest.o)
                0x00005258                PRIME_TABLE
                0x00005f80                NR_STORED_PRIMES
                0x00005f84                MAX_TABULATED_PRIME
 .rodata.hello_world_ta.c
                0x00005f88       0x33 ./hello_world_ta.o
 .rodata.str1.1.hello_world_ta.c
                0x00005fbb       0x18 ./hello_world_ta.o
 .rodata.str1.1.user_ta_header.c
                0x00005fd3       0xdd ./user_ta_header.o
 .rodata.lib/libutee/arch/arm/user_ta_entry.c
                0x000060b0        0xd /root/devel/optee/optee_os/out/arm/export-ta_arm32/lib/libutee.a(user_ta_entry.o)
 .rodata.str1.1.lib/libutee/arch/arm/user_ta_entry.c
                0x000060bd        0xb /root/devel/optee/optee_os/out/arm/export-ta_arm32/lib/libutee.a(user_ta_entry.o)
 .rodata.lib/libutee/tee_api_arith.c
                0x000060c8       0x30 /root/devel/optee/optee_os/out/arm/export-ta_arm32/lib/libutee.a(tee_api_arith.o)
 .rodata.str1.1.lib/libutee/tee_api_arith.c
                0x000060f8       0x5b /root/devel/optee/optee_os/out/arm/export-ta_arm32/lib/libutee.a(tee_api_arith.o)
                                 0x66 (size before relaxing)
 .rodata.lib/libutee/tee_api.c
                0x00006153       0xad /root/devel/optee/optee_os/out/arm/export-ta_arm32/lib/libutee.a(tee_api.o)
 .rodata.str1.1.lib/libutee/tee_api.c
                0x00000000        0xb /root/devel/optee/optee_os/out/arm/export-ta_arm32/lib/libutee.a(tee_api.o)
 .rodata.lib/libutee/tee_user_mem.c
                0x00006200       0x6b /root/devel/optee/optee_os/out/arm/export-ta_arm32/lib/libutee.a(tee_user_mem.o)
 .rodata.str1.1.lib/libutee/tee_user_mem.c
                0x0000626b       0xfc /root/devel/optee/optee_os/out/arm/export-ta_arm32/lib/libutee.a(tee_user_mem.o)
                                 0xff (size before relaxing)
 .rodata.lib/libutee/trace_ext.c
                0x00006367       0x1b /root/devel/optee/optee_os/out/arm/export-ta_arm32/lib/libutee.a(trace_ext.o)
 .rodata.str1.1.lib/libutee/trace_ext.c
                0x00006382        0x5 /root/devel/optee/optee_os/out/arm/export-ta_arm32/lib/libutee.a(trace_ext.o)
 .rodata.lib/libutee/assert.c
                0x00006387        0xc /root/devel/optee/optee_os/out/arm/export-ta_arm32/lib/libutee.a(assert.o)
 .rodata.str1.1.lib/libutee/assert.c
                0x00006393       0x1f /root/devel/optee/optee_os/out/arm/export-ta_arm32/lib/libutee.a(assert.o)
 .rodata.str1.1.lib/libutils/isoc/bget_malloc.c
                0x000063b2      0x3c3 /root/devel/optee/optee_os/out/arm/export-ta_arm32/lib/libutils.a(bget_malloc.o)
                                0x3cc (size before relaxing)
 .rodata.lib/libutils/ext/snprintk.c
                0x00006775       0x22 /root/devel/optee/optee_os/out/arm/export-ta_arm32/lib/libutils.a(snprintk.o)
 .rodata.str1.1.lib/libutils/ext/snprintk.c
                0x00006797       0x37 /root/devel/optee/optee_os/out/arm/export-ta_arm32/lib/libutils.a(snprintk.o)
 .rodata.lib/libutils/ext/trace.c
                0x000067ce       0x37 /root/devel/optee/optee_os/out/arm/export-ta_arm32/lib/libutils.a(trace.o)
 .rodata.str1.1.lib/libutils/ext/trace.c
                0x00006805       0x40 /root/devel/optee/optee_os/out/arm/export-ta_arm32/lib/libutils.a(trace.o)
                                 0x42 (size before relaxing)
 .rodata.str1.1.lib/libmpa/mpa_io.c
                0x00006845       0x81 /root/devel/optee/optee_os/out/arm/export-ta_arm32/lib/libmpa.a(mpa_io.o)

.gnu.version_d  0x000068c8        0x0
 .gnu.version_d
                0x00000000        0x0 ./hello_world_ta.o

.gnu.version    0x000068c6        0x0
 .gnu.version   0x00000000        0x0 ./hello_world_ta.o

.gnu.version_r  0x000068c8        0x0
 .gnu.version_r
                0x00000000        0x0 ./hello_world_ta.o

.ARM.exidx
 *(SORT(.ARM.exidx*) SORT(.gnu.linkonce.armexidx.*))

.ctors
 *(SORT(.ctors))

.dtors
 *(SORT(.dtors))

.plt            0x000068c8        0x0
 *(SORT(.plt))
 .plt           0x00000000        0x0 ./hello_world_ta.o

.got            0x000068c8       0x28
 *(SORT(.got.plt))
 .got.plt       0x000068c8        0xc ./hello_world_ta.o
                0x000068c8                _GLOBAL_OFFSET_TABLE_
 *(SORT(.got))
 .got           0x000068d4       0x1c ./hello_world_ta.o

.rel.text
 *(SORT(.rel.text))
 *(SORT(.rel.gnu.linkonce.t*))

.rela.text
 *(SORT(.rela.text))
 *(SORT(.rela.gnu.linkonce.t*))

.rel.data
 *(SORT(.rel.data))
 *(SORT(.rel.gnu.linkonce.d*))

.rela.data
 *(SORT(.rela.data))
 *(SORT(.rela.gnu.linkonce.d*))

.rel.rodata
 *(SORT(.rel.rodata))
 *(SORT(.rel.gnu.linkonce.r*))

.rela.rodata
 *(SORT(.rela.rodata))
 *(SORT(.rela.gnu.linkonce.r*))

.rel.dyn        0x000068f0       0xb8
 *(SORT(.rel.dyn))
 .rel.iplt      0x00000000        0x0 ./hello_world_ta.o
 .rel.ta_head   0x000068f0        0x8 ./hello_world_ta.o
 .rel.data.rel.ro.local
                0x000068f8       0x90 ./hello_world_ta.o
 .rel.data.rel.local
                0x00006988       0x20 ./hello_world_ta.o

.rel.got        0x000069a8       0x38
 *(SORT(.rel.got))
 .rel.got       0x000069a8       0x38 ./hello_world_ta.o

.rela.got
 *(SORT(.rela.got))

.rel.ctors
 *(SORT(.rel.ctors))

.rela.ctors
 *(SORT(.rela.ctors))

.rel.dtors
 *(SORT(.rel.dtors))

.rela.dtors
 *(SORT(.rela.dtors))

.rel.init
 *(SORT(.rel.init))

.rela.init
 *(SORT(.rela.init))

.rel.fini
 *(SORT(.rel.fini))

.rela.fini
 *(SORT(.rela.fini))

.rel.bss
 *(SORT(.rel.bss))

.rela.bss
 *(SORT(.rela.bss))

.rel.plt        0x000069e0        0x0
 *(SORT(.rel.plt))
 .rel.plt       0x00000000        0x0 ./hello_world_ta.o

.rela.plt
 *(SORT(.rela.plt))

.dynamic        0x000069e0       0x78
 *(SORT(.dynamic))
 .dynamic       0x000069e0       0x78 ./hello_world_ta.o
                0x000069e0                _DYNAMIC

.dynsym         0x00006a58       0xa0
 *(SORT(.dynsym))
 .dynsym        0x00006a58       0xa0 ./hello_world_ta.o

.dynstr         0x00006af8       0x5f
 *(SORT(.dynstr))
 .dynstr        0x00006af8       0x5f ./hello_world_ta.o

.hash           0x00006b58       0x3c
 *(SORT(.hash))
 .hash          0x00006b58       0x3c ./hello_world_ta.o
                0x00007000                . = ALIGN (0x1000)

.data           0x00007000       0x90
 *(SORT(.data) SORT(.data.*) SORT(.gnu.linkonce.d.*))
 .data          0x00007000        0x4 ./user_ta_header.o
                0x00007000                trace_level
 .data.rel.ro.local
                0x00007004       0x6c ./user_ta_header.o
                0x00007004                ta_props
 .data.rel.local
                0x00007070        0x8 /root/devel/optee/optee_os/out/arm/export-ta_arm32/lib/libutee.a(user_ta_entry.o)
 .data.rel.local
                0x00007078        0x8 /root/devel/optee/optee_os/out/arm/export-ta_arm32/lib/libutee.a(tee_user_mem.o)
                0x00007078                user_mem_head
 .data.rel.local
                0x00007080       0x10 /root/devel/optee/optee_os/out/arm/export-ta_arm32/lib/libutils.a(bget_malloc.o)
 .data          0x00007090        0x0 ./hello_world_ta.o
 .data          0x00007090        0x0 /root/devel/optee/optee_os/out/arm/export-ta_arm32/lib/libutee.a(user_ta_entry.o)
 .data          0x00007090        0x0 /root/devel/optee/optee_os/out/arm/export-ta_arm32/lib/libutee.a(utee_syscalls_a32.o)
 .data          0x00007090        0x0 /root/devel/optee/optee_os/out/arm/export-ta_arm32/lib/libutee.a(tee_api_arith.o)
 .data          0x00007090        0x0 /root/devel/optee/optee_os/out/arm/export-ta_arm32/lib/libutee.a(tee_api.o)
 .data          0x00007090        0x0 /root/devel/optee/optee_os/out/arm/export-ta_arm32/lib/libutee.a(tee_api_panic.o)
 .data          0x00007090        0x0 /root/devel/optee/optee_os/out/arm/export-ta_arm32/lib/libutee.a(utee_misc.o)
 .data          0x00007090        0x0 /root/devel/optee/optee_os/out/arm/export-ta_arm32/lib/libutee.a(tee_user_mem.o)
 .data          0x00007090        0x0 /root/devel/optee/optee_os/out/arm/export-ta_arm32/lib/libutee.a(trace_ext.o)
 .data          0x00007090        0x0 /root/devel/optee/optee_os/out/arm/export-ta_arm32/lib/libutee.a(assert.o)
 .data          0x00007090        0x0 /root/devel/optee/optee_os/out/arm/export-ta_arm32/lib/libutils.a(bget_malloc.o)
 .data          0x00007090        0x0 /root/devel/optee/optee_os/out/arm/export-ta_arm32/lib/libutils.a(snprintf.o)
 .data          0x00007090        0x0 /root/devel/optee/optee_os/out/arm/export-ta_arm32/lib/libutils.a(memcmp.o)
 .data          0x00007090        0x0 /root/devel/optee/optee_os/out/arm/export-ta_arm32/lib/libutils.a(memcpy.o)
 .data          0x00007090        0x0 /root/devel/optee/optee_os/out/arm/export-ta_arm32/lib/libutils.a(memmove.o)
 .data          0x00007090        0x0 /root/devel/optee/optee_os/out/arm/export-ta_arm32/lib/libutils.a(memset.o)
 .data          0x00007090        0x0 /root/devel/optee/optee_os/out/arm/export-ta_arm32/lib/libutils.a(strlen.o)
 .data          0x00007090        0x0 /root/devel/optee/optee_os/out/arm/export-ta_arm32/lib/libutils.a(snprintk.o)
 .data          0x00007090        0x0 /root/devel/optee/optee_os/out/arm/export-ta_arm32/lib/libutils.a(strlcpy.o)
 .data          0x00007090        0x0 /root/devel/optee/optee_os/out/arm/export-ta_arm32/lib/libutils.a(trace.o)
 .data          0x00007090        0x0 /root/devel/optee/optee_os/out/arm/export-ta_arm32/lib/libutils.a(memchr.o)
 .data          0x00007090        0x0 /root/devel/optee/optee_os/out/arm/export-ta_arm32/lib/libutils.a(arm32_aeabi_ldivmod_a32.o)
 .data          0x00007090        0x0 /root/devel/optee/optee_os/out/arm/export-ta_arm32/lib/libutils.a(arm32_aeabi_ldivmod.o)
 .data          0x00007090        0x0 /root/devel/optee/optee_os/out/arm/export-ta_arm32/lib/libmpa.a(mpa_misc.o)
 .data          0x00007090        0x0 /root/devel/optee/optee_os/out/arm/export-ta_arm32/lib/libmpa.a(mpa_montgomery.o)
 .data          0x00007090        0x0 /root/devel/optee/optee_os/out/arm/export-ta_arm32/lib/libmpa.a(mpa_primetest.o)
 .data          0x00007090        0x0 /root/devel/optee/optee_os/out/arm/export-ta_arm32/lib/libmpa.a(mpa_conv.o)
 .data          0x00007090        0x0 /root/devel/optee/optee_os/out/arm/export-ta_arm32/lib/libmpa.a(mpa_div.o)
 .data          0x00007090        0x0 /root/devel/optee/optee_os/out/arm/export-ta_arm32/lib/libmpa.a(mpa_gcd.o)
 .data          0x00007090        0x0 /root/devel/optee/optee_os/out/arm/export-ta_arm32/lib/libmpa.a(mpa_mem_static.o)
 .data          0x00007090        0x0 /root/devel/optee/optee_os/out/arm/export-ta_arm32/lib/libmpa.a(mpa_mul.o)
 .data          0x00007090        0x0 /root/devel/optee/optee_os/out/arm/export-ta_arm32/lib/libmpa.a(mpa_random.o)
 .data          0x00007090        0x0 /root/devel/optee/optee_os/out/arm/export-ta_arm32/lib/libmpa.a(mpa_shift.o)
 .data          0x00007090        0x0 /root/devel/optee/optee_os/out/arm/export-ta_arm32/lib/libmpa.a(mpa_addsub.o)
 .data          0x00007090        0x0 /root/devel/optee/optee_os/out/arm/export-ta_arm32/lib/libmpa.a(mpa_cmp.o)
 .data          0x00007090        0x0 /root/devel/optee/optee_os/out/arm/export-ta_arm32/lib/libmpa.a(mpa_expmod.o)
 .data          0x00007090        0x0 /root/devel/optee/optee_os/out/arm/export-ta_arm32/lib/libmpa.a(mpa_init.o)
 .data          0x00007090        0x0 /root/devel/optee/optee_os/out/arm/export-ta_arm32/lib/libmpa.a(mpa_io.o)
 .data          0x00007090        0x0 /root/devel/optee/optee_os/out/arm/export-ta_arm32/lib/libmpa.a(mpa_modulus.o)

.igot.plt       0x00007090        0x0
 .igot.plt      0x00000000        0x0 ./hello_world_ta.o

.bss            0x00007090     0xab5a
 *(SORT(.bss) SORT(.bss.*) SORT(.gnu.linkonce.b.*) SORT(COMMON))
 .bss           0x00007090       0x2c /root/devel/optee/optee_os/out/arm/export-ta_arm32/lib/libutee.a(user_ta_entry.o)
                0x00007094                ta_params
                0x000070b8                ta_param_types
 .bss           0x000070bc     0x1b00 /root/devel/optee/optee_os/out/arm/export-ta_arm32/lib/libutee.a(tee_api_arith.o)
 .bss           0x00008bbc        0x4 /root/devel/optee/optee_os/out/arm/export-ta_arm32/lib/libutee.a(tee_api.o)
 .bss           0x00008bc0        0xc /root/devel/optee/optee_os/out/arm/export-ta_arm32/lib/libutee.a(tee_user_mem.o)
 .bss           0x00008bcc       0x18 /root/devel/optee/optee_os/out/arm/export-ta_arm32/lib/libutils.a(bget_malloc.o)
 .bss           0x00008be4        0x4 /root/devel/optee/optee_os/out/arm/export-ta_arm32/lib/libmpa.a(mpa_random.o)
 .bss           0x00008be8        0x0 ./hello_world_ta.o
 .bss           0x00008be8     0x8000 ./user_ta_header.o
                0x00008be8                ta_heap
 .bss           0x00010be8        0x0 /root/devel/optee/optee_os/out/arm/export-ta_arm32/lib/libutee.a(utee_syscalls_a32.o)
 .bss           0x00010be8        0x0 /root/devel/optee/optee_os/out/arm/export-ta_arm32/lib/libutee.a(tee_api_panic.o)
 .bss           0x00010be8        0x0 /root/devel/optee/optee_os/out/arm/export-ta_arm32/lib/libutee.a(utee_misc.o)
 .bss           0x00010be8        0x0 /root/devel/optee/optee_os/out/arm/export-ta_arm32/lib/libutee.a(trace_ext.o)
 .bss           0x00010be8        0x0 /root/devel/optee/optee_os/out/arm/export-ta_arm32/lib/libutee.a(assert.o)
 .bss           0x00010be8        0x0 /root/devel/optee/optee_os/out/arm/export-ta_arm32/lib/libutils.a(snprintf.o)
 .bss           0x00010be8        0x0 /root/devel/optee/optee_os/out/arm/export-ta_arm32/lib/libutils.a(memcmp.o)
 .bss           0x00010be8        0x0 /root/devel/optee/optee_os/out/arm/export-ta_arm32/lib/libutils.a(memcpy.o)
 .bss           0x00010be8        0x0 /root/devel/optee/optee_os/out/arm/export-ta_arm32/lib/libutils.a(memmove.o)
 .bss           0x00010be8        0x0 /root/devel/optee/optee_os/out/arm/export-ta_arm32/lib/libutils.a(memset.o)
 .bss           0x00010be8        0x0 /root/devel/optee/optee_os/out/arm/export-ta_arm32/lib/libutils.a(strlen.o)
 .bss           0x00010be8        0x0 /root/devel/optee/optee_os/out/arm/export-ta_arm32/lib/libutils.a(snprintk.o)
 .bss           0x00010be8        0x0 /root/devel/optee/optee_os/out/arm/export-ta_arm32/lib/libutils.a(strlcpy.o)
 .bss           0x00010be8        0x0 /root/devel/optee/optee_os/out/arm/export-ta_arm32/lib/libutils.a(trace.o)
 .bss           0x00010be8        0x0 /root/devel/optee/optee_os/out/arm/export-ta_arm32/lib/libutils.a(memchr.o)
 .bss           0x00010be8        0x0 /root/devel/optee/optee_os/out/arm/export-ta_arm32/lib/libutils.a(arm32_aeabi_ldivmod_a32.o)
 .bss           0x00010be8        0x0 /root/devel/optee/optee_os/out/arm/export-ta_arm32/lib/libutils.a(arm32_aeabi_ldivmod.o)
 .bss           0x00010be8        0x0 /root/devel/optee/optee_os/out/arm/export-ta_arm32/lib/libmpa.a(mpa_misc.o)
 .bss           0x00010be8        0x0 /root/devel/optee/optee_os/out/arm/export-ta_arm32/lib/libmpa.a(mpa_montgomery.o)
 .bss           0x00010be8        0x0 /root/devel/optee/optee_os/out/arm/export-ta_arm32/lib/libmpa.a(mpa_primetest.o)
 .bss           0x00010be8        0x0 /root/devel/optee/optee_os/out/arm/export-ta_arm32/lib/libmpa.a(mpa_conv.o)
 .bss           0x00010be8        0x0 /root/devel/optee/optee_os/out/arm/export-ta_arm32/lib/libmpa.a(mpa_div.o)
 .bss           0x00010be8        0x0 /root/devel/optee/optee_os/out/arm/export-ta_arm32/lib/libmpa.a(mpa_gcd.o)
 .bss           0x00010be8        0x0 /root/devel/optee/optee_os/out/arm/export-ta_arm32/lib/libmpa.a(mpa_mem_static.o)
 .bss           0x00010be8        0x0 /root/devel/optee/optee_os/out/arm/export-ta_arm32/lib/libmpa.a(mpa_mul.o)
 .bss           0x00010be8        0x0 /root/devel/optee/optee_os/out/arm/export-ta_arm32/lib/libmpa.a(mpa_shift.o)
 .bss           0x00010be8        0x0 /root/devel/optee/optee_os/out/arm/export-ta_arm32/lib/libmpa.a(mpa_addsub.o)
 .bss           0x00010be8        0x0 /root/devel/optee/optee_os/out/arm/export-ta_arm32/lib/libmpa.a(mpa_cmp.o)
 .bss           0x00010be8        0x0 /root/devel/optee/optee_os/out/arm/export-ta_arm32/lib/libmpa.a(mpa_expmod.o)
 .bss           0x00010be8        0x0 /root/devel/optee/optee_os/out/arm/export-ta_arm32/lib/libmpa.a(mpa_init.o)
 .bss           0x00010be8     0x1002 /root/devel/optee/optee_os/out/arm/export-ta_arm32/lib/libmpa.a(mpa_io.o)
 .bss           0x00011bea        0x0 /root/devel/optee/optee_os/out/arm/export-ta_arm32/lib/libmpa.a(mpa_modulus.o)

.dynbss         0x00011bea        0x0
 .dynbss        0x00000000        0x0 ./hello_world_ta.o

/DISCARD/
 *(SORT(.interp))
LOAD ./hello_world_ta.o
LOAD ./user_ta_header.o
LOAD /root/devel/optee/optee_os/out/arm/export-ta_arm32/lib/libutee.a
LOAD /root/devel/optee/optee_os/out/arm/export-ta_arm32/lib/libutils.a
LOAD /root/devel/optee/optee_os/out/arm/export-ta_arm32/lib/libmpa.a
LOAD /root/devel/optee/optee_os/out/arm/export-ta_arm32/lib/libutee.a
LOAD /root/devel/optee/optee_os/out/arm/export-ta_arm32/lib/libutils.a
OUTPUT(8aaaf200-2450-11e4-abe20002a5d5c51b.elf elf32-littlearm)

.debug_info     0x00000000     0xea48
 .debug_info    0x00000000      0x315 ./hello_world_ta.o
 .debug_info    0x00000315      0x2d8 ./user_ta_header.o
 .debug_info    0x000005ed      0x9e7 /root/devel/optee/optee_os/out/arm/export-ta_arm32/lib/libutee.a(user_ta_entry.o)
 .debug_info    0x00000fd4     0x1d54 /root/devel/optee/optee_os/out/arm/export-ta_arm32/lib/libutee.a(tee_api_arith.o)
 .debug_info    0x00002d28     0x113b /root/devel/optee/optee_os/out/arm/export-ta_arm32/lib/libutee.a(tee_api.o)
 .debug_info    0x00003e63      0x136 /root/devel/optee/optee_os/out/arm/export-ta_arm32/lib/libutee.a(tee_api_panic.o)
 .debug_info    0x00003f99      0x285 /root/devel/optee/optee_os/out/arm/export-ta_arm32/lib/libutee.a(utee_misc.o)
 .debug_info    0x0000421e      0xbe7 /root/devel/optee/optee_os/out/arm/export-ta_arm32/lib/libutee.a(tee_user_mem.o)
 .debug_info    0x00004e05      0x35b /root/devel/optee/optee_os/out/arm/export-ta_arm32/lib/libutee.a(trace_ext.o)
 .debug_info    0x00005160      0x184 /root/devel/optee/optee_os/out/arm/export-ta_arm32/lib/libutee.a(assert.o)
 .debug_info    0x000052e4     0x14b0 /root/devel/optee/optee_os/out/arm/export-ta_arm32/lib/libutils.a(bget_malloc.o)
 .debug_info    0x00006794      0x1c0 /root/devel/optee/optee_os/out/arm/export-ta_arm32/lib/libutils.a(snprintf.o)
 .debug_info    0x00006954       0xb4 /root/devel/optee/optee_os/out/arm/export-ta_arm32/lib/libutils.a(memcmp.o)
 .debug_info    0x00006a08       0xc9 /root/devel/optee/optee_os/out/arm/export-ta_arm32/lib/libutils.a(memcpy.o)
 .debug_info    0x00006ad1       0xc7 /root/devel/optee/optee_os/out/arm/export-ta_arm32/lib/libutils.a(memmove.o)
 .debug_info    0x00006b98       0x9c /root/devel/optee/optee_os/out/arm/export-ta_arm32/lib/libutils.a(memset.o)
 .debug_info    0x00006c34       0x8d /root/devel/optee/optee_os/out/arm/export-ta_arm32/lib/libutils.a(strlen.o)
 .debug_info    0x00006cc1      0x6c5 /root/devel/optee/optee_os/out/arm/export-ta_arm32/lib/libutils.a(snprintk.o)
 .debug_info    0x00007386       0xff /root/devel/optee/optee_os/out/arm/export-ta_arm32/lib/libutils.a(strlcpy.o)
 .debug_info    0x00007485      0x671 /root/devel/optee/optee_os/out/arm/export-ta_arm32/lib/libutils.a(trace.o)
 .debug_info    0x00007af6       0xbd /root/devel/optee/optee_os/out/arm/export-ta_arm32/lib/libutils.a(memchr.o)
 .debug_info    0x00007bb3      0x2e3 /root/devel/optee/optee_os/out/arm/export-ta_arm32/lib/libutils.a(arm32_aeabi_ldivmod.o)
 .debug_info    0x00007e96      0x39f /root/devel/optee/optee_os/out/arm/export-ta_arm32/lib/libmpa.a(mpa_misc.o)
 .debug_info    0x00008235      0x8be /root/devel/optee/optee_os/out/arm/export-ta_arm32/lib/libmpa.a(mpa_montgomery.o)
 .debug_info    0x00008af3      0xa96 /root/devel/optee/optee_os/out/arm/export-ta_arm32/lib/libmpa.a(mpa_primetest.o)
 .debug_info    0x00009589      0x1cf /root/devel/optee/optee_os/out/arm/export-ta_arm32/lib/libmpa.a(mpa_conv.o)
 .debug_info    0x00009758      0xbbb /root/devel/optee/optee_os/out/arm/export-ta_arm32/lib/libmpa.a(mpa_div.o)
 .debug_info    0x0000a313      0xdbf /root/devel/optee/optee_os/out/arm/export-ta_arm32/lib/libmpa.a(mpa_gcd.o)
 .debug_info    0x0000b0d2      0x494 /root/devel/optee/optee_os/out/arm/export-ta_arm32/lib/libmpa.a(mpa_mem_static.o)
 .debug_info    0x0000b566      0x6ac /root/devel/optee/optee_os/out/arm/export-ta_arm32/lib/libmpa.a(mpa_mul.o)
 .debug_info    0x0000bc12      0x2e9 /root/devel/optee/optee_os/out/arm/export-ta_arm32/lib/libmpa.a(mpa_random.o)
 .debug_info    0x0000befb      0x3a1 /root/devel/optee/optee_os/out/arm/export-ta_arm32/lib/libmpa.a(mpa_shift.o)
 .debug_info    0x0000c29c      0xc67 /root/devel/optee/optee_os/out/arm/export-ta_arm32/lib/libmpa.a(mpa_addsub.o)
 .debug_info    0x0000cf03      0x2c6 /root/devel/optee/optee_os/out/arm/export-ta_arm32/lib/libmpa.a(mpa_cmp.o)
 .debug_info    0x0000d1c9      0x4fc /root/devel/optee/optee_os/out/arm/export-ta_arm32/lib/libmpa.a(mpa_expmod.o)
 .debug_info    0x0000d6c5      0x216 /root/devel/optee/optee_os/out/arm/export-ta_arm32/lib/libmpa.a(mpa_init.o)
 .debug_info    0x0000d8db      0x9ad /root/devel/optee/optee_os/out/arm/export-ta_arm32/lib/libmpa.a(mpa_io.o)
 .debug_info    0x0000e288      0x7c0 /root/devel/optee/optee_os/out/arm/export-ta_arm32/lib/libmpa.a(mpa_modulus.o)

.debug_abbrev   0x00000000     0x4314
 .debug_abbrev  0x00000000      0x1d7 ./hello_world_ta.o
 .debug_abbrev  0x000001d7      0x103 ./user_ta_header.o
 .debug_abbrev  0x000002da      0x33d /root/devel/optee/optee_os/out/arm/export-ta_arm32/lib/libutee.a(user_ta_entry.o)
 .debug_abbrev  0x00000617      0x39a /root/devel/optee/optee_os/out/arm/export-ta_arm32/lib/libutee.a(tee_api_arith.o)
 .debug_abbrev  0x000009b1      0x2b5 /root/devel/optee/optee_os/out/arm/export-ta_arm32/lib/libutee.a(tee_api.o)
 .debug_abbrev  0x00000c66       0xdc /root/devel/optee/optee_os/out/arm/export-ta_arm32/lib/libutee.a(tee_api_panic.o)
 .debug_abbrev  0x00000d42      0x10b /root/devel/optee/optee_os/out/arm/export-ta_arm32/lib/libutee.a(utee_misc.o)
 .debug_abbrev  0x00000e4d      0x3e3 /root/devel/optee/optee_os/out/arm/export-ta_arm32/lib/libutee.a(tee_user_mem.o)
 .debug_abbrev  0x00001230      0x1b4 /root/devel/optee/optee_os/out/arm/export-ta_arm32/lib/libutee.a(trace_ext.o)
 .debug_abbrev  0x000013e4       0xcc /root/devel/optee/optee_os/out/arm/export-ta_arm32/lib/libutee.a(assert.o)
 .debug_abbrev  0x000014b0      0x3d8 /root/devel/optee/optee_os/out/arm/export-ta_arm32/lib/libutils.a(bget_malloc.o)
 .debug_abbrev  0x00001888      0x10c /root/devel/optee/optee_os/out/arm/export-ta_arm32/lib/libutils.a(snprintf.o)
 .debug_abbrev  0x00001994       0x91 /root/devel/optee/optee_os/out/arm/export-ta_arm32/lib/libutils.a(memcmp.o)
 .debug_abbrev  0x00001a25       0xa7 /root/devel/optee/optee_os/out/arm/export-ta_arm32/lib/libutils.a(memcpy.o)
 .debug_abbrev  0x00001acc       0x9f /root/devel/optee/optee_os/out/arm/export-ta_arm32/lib/libutils.a(memmove.o)
 .debug_abbrev  0x00001b6b       0x93 /root/devel/optee/optee_os/out/arm/export-ta_arm32/lib/libutils.a(memset.o)
 .debug_abbrev  0x00001bfe       0x84 /root/devel/optee/optee_os/out/arm/export-ta_arm32/lib/libutils.a(strlen.o)
 .debug_abbrev  0x00001c82      0x287 /root/devel/optee/optee_os/out/arm/export-ta_arm32/lib/libutils.a(snprintk.o)
 .debug_abbrev  0x00001f09       0x93 /root/devel/optee/optee_os/out/arm/export-ta_arm32/lib/libutils.a(strlcpy.o)
 .debug_abbrev  0x00001f9c      0x28c /root/devel/optee/optee_os/out/arm/export-ta_arm32/lib/libutils.a(trace.o)
 .debug_abbrev  0x00002228       0xae /root/devel/optee/optee_os/out/arm/export-ta_arm32/lib/libutils.a(memchr.o)
 .debug_abbrev  0x000022d6      0x138 /root/devel/optee/optee_os/out/arm/export-ta_arm32/lib/libutils.a(arm32_aeabi_ldivmod.o)
 .debug_abbrev  0x0000240e      0x16f /root/devel/optee/optee_os/out/arm/export-ta_arm32/lib/libmpa.a(mpa_misc.o)
 .debug_abbrev  0x0000257d      0x2a0 /root/devel/optee/optee_os/out/arm/export-ta_arm32/lib/libmpa.a(mpa_montgomery.o)
 .debug_abbrev  0x0000281d      0x245 /root/devel/optee/optee_os/out/arm/export-ta_arm32/lib/libmpa.a(mpa_primetest.o)
 .debug_abbrev  0x00002a62       0xfd /root/devel/optee/optee_os/out/arm/export-ta_arm32/lib/libmpa.a(mpa_conv.o)
 .debug_abbrev  0x00002b5f      0x273 /root/devel/optee/optee_os/out/arm/export-ta_arm32/lib/libmpa.a(mpa_div.o)
 .debug_abbrev  0x00002dd2      0x268 /root/devel/optee/optee_os/out/arm/export-ta_arm32/lib/libmpa.a(mpa_gcd.o)
 .debug_abbrev  0x0000303a      0x1ea /root/devel/optee/optee_os/out/arm/export-ta_arm32/lib/libmpa.a(mpa_mem_static.o)
 .debug_abbrev  0x00003224      0x231 /root/devel/optee/optee_os/out/arm/export-ta_arm32/lib/libmpa.a(mpa_mul.o)
 .debug_abbrev  0x00003455      0x1b8 /root/devel/optee/optee_os/out/arm/export-ta_arm32/lib/libmpa.a(mpa_random.o)
 .debug_abbrev  0x0000360d      0x154 /root/devel/optee/optee_os/out/arm/export-ta_arm32/lib/libmpa.a(mpa_shift.o)
 .debug_abbrev  0x00003761      0x2cd /root/devel/optee/optee_os/out/arm/export-ta_arm32/lib/libmpa.a(mpa_addsub.o)
 .debug_abbrev  0x00003a2e      0x10c /root/devel/optee/optee_os/out/arm/export-ta_arm32/lib/libmpa.a(mpa_cmp.o)
 .debug_abbrev  0x00003b3a      0x1ad /root/devel/optee/optee_os/out/arm/export-ta_arm32/lib/libmpa.a(mpa_expmod.o)
 .debug_abbrev  0x00003ce7      0x10c /root/devel/optee/optee_os/out/arm/export-ta_arm32/lib/libmpa.a(mpa_init.o)
 .debug_abbrev  0x00003df3      0x385 /root/devel/optee/optee_os/out/arm/export-ta_arm32/lib/libmpa.a(mpa_io.o)
 .debug_abbrev  0x00004178      0x19c /root/devel/optee/optee_os/out/arm/export-ta_arm32/lib/libmpa.a(mpa_modulus.o)

.debug_loc      0x00000000     0xa90c
 .debug_loc     0x00000000      0x16f ./hello_world_ta.o
 .debug_loc     0x0000016f      0x490 /root/devel/optee/optee_os/out/arm/export-ta_arm32/lib/libutee.a(user_ta_entry.o)
 .debug_loc     0x000005ff     0x1647 /root/devel/optee/optee_os/out/arm/export-ta_arm32/lib/libutee.a(tee_api_arith.o)
 .debug_loc     0x00001c46      0x78b /root/devel/optee/optee_os/out/arm/export-ta_arm32/lib/libutee.a(tee_api.o)
 .debug_loc     0x000023d1       0x42 /root/devel/optee/optee_os/out/arm/export-ta_arm32/lib/libutee.a(tee_api_panic.o)
 .debug_loc     0x00002413      0x11e /root/devel/optee/optee_os/out/arm/export-ta_arm32/lib/libutee.a(utee_misc.o)
 .debug_loc     0x00002531      0x696 /root/devel/optee/optee_os/out/arm/export-ta_arm32/lib/libutee.a(tee_user_mem.o)
 .debug_loc     0x00002bc7       0xaa /root/devel/optee/optee_os/out/arm/export-ta_arm32/lib/libutee.a(trace_ext.o)
 .debug_loc     0x00002c71       0x87 /root/devel/optee/optee_os/out/arm/export-ta_arm32/lib/libutee.a(assert.o)
 .debug_loc     0x00002cf8     0x1892 /root/devel/optee/optee_os/out/arm/export-ta_arm32/lib/libutils.a(bget_malloc.o)
 .debug_loc     0x0000458a       0xb8 /root/devel/optee/optee_os/out/arm/export-ta_arm32/lib/libutils.a(snprintf.o)
 .debug_loc     0x00004642       0xe1 /root/devel/optee/optee_os/out/arm/export-ta_arm32/lib/libutils.a(memcmp.o)
 .debug_loc     0x00004723       0x95 /root/devel/optee/optee_os/out/arm/export-ta_arm32/lib/libutils.a(memcpy.o)
 .debug_loc     0x000047b8       0xde /root/devel/optee/optee_os/out/arm/export-ta_arm32/lib/libutils.a(memmove.o)
 .debug_loc     0x00004896       0x57 /root/devel/optee/optee_os/out/arm/export-ta_arm32/lib/libutils.a(memset.o)
 .debug_loc     0x000048ed       0x3f /root/devel/optee/optee_os/out/arm/export-ta_arm32/lib/libutils.a(strlen.o)
 .debug_loc     0x0000492c      0xe78 /root/devel/optee/optee_os/out/arm/export-ta_arm32/lib/libutils.a(snprintk.o)
 .debug_loc     0x000057a4       0xfd /root/devel/optee/optee_os/out/arm/export-ta_arm32/lib/libutils.a(strlcpy.o)
 .debug_loc     0x000058a1      0x359 /root/devel/optee/optee_os/out/arm/export-ta_arm32/lib/libutils.a(trace.o)
 .debug_loc     0x00005bfa       0xb8 /root/devel/optee/optee_os/out/arm/export-ta_arm32/lib/libutils.a(memchr.o)
 .debug_loc     0x00005cb2      0x526 /root/devel/optee/optee_os/out/arm/export-ta_arm32/lib/libutils.a(arm32_aeabi_ldivmod.o)
 .debug_loc     0x000061d8      0x271 /root/devel/optee/optee_os/out/arm/export-ta_arm32/lib/libmpa.a(mpa_misc.o)
 .debug_loc     0x00006449      0x5bd /root/devel/optee/optee_os/out/arm/export-ta_arm32/lib/libmpa.a(mpa_montgomery.o)
 .debug_loc     0x00006a06      0x2e7 /root/devel/optee/optee_os/out/arm/export-ta_arm32/lib/libmpa.a(mpa_primetest.o)
 .debug_loc     0x00006ced       0xd5 /root/devel/optee/optee_os/out/arm/export-ta_arm32/lib/libmpa.a(mpa_conv.o)
 .debug_loc     0x00006dc2      0x750 /root/devel/optee/optee_os/out/arm/export-ta_arm32/lib/libmpa.a(mpa_div.o)
 .debug_loc     0x00007512      0x668 /root/devel/optee/optee_os/out/arm/export-ta_arm32/lib/libmpa.a(mpa_gcd.o)
 .debug_loc     0x00007b7a      0x304 /root/devel/optee/optee_os/out/arm/export-ta_arm32/lib/libmpa.a(mpa_mem_static.o)
 .debug_loc     0x00007e7e      0x476 /root/devel/optee/optee_os/out/arm/export-ta_arm32/lib/libmpa.a(mpa_mul.o)
 .debug_loc     0x000082f4       0xfd /root/devel/optee/optee_os/out/arm/export-ta_arm32/lib/libmpa.a(mpa_random.o)
 .debug_loc     0x000083f1      0x467 /root/devel/optee/optee_os/out/arm/export-ta_arm32/lib/libmpa.a(mpa_shift.o)
 .debug_loc     0x00008858      0xd39 /root/devel/optee/optee_os/out/arm/export-ta_arm32/lib/libmpa.a(mpa_addsub.o)
 .debug_loc     0x00009591      0x247 /root/devel/optee/optee_os/out/arm/export-ta_arm32/lib/libmpa.a(mpa_cmp.o)
 .debug_loc     0x000097d8      0x1cb /root/devel/optee/optee_os/out/arm/export-ta_arm32/lib/libmpa.a(mpa_expmod.o)
 .debug_loc     0x000099a3       0xbf /root/devel/optee/optee_os/out/arm/export-ta_arm32/lib/libmpa.a(mpa_init.o)
 .debug_loc     0x00009a62      0xbc2 /root/devel/optee/optee_os/out/arm/export-ta_arm32/lib/libmpa.a(mpa_io.o)
 .debug_loc     0x0000a624      0x2e8 /root/devel/optee/optee_os/out/arm/export-ta_arm32/lib/libmpa.a(mpa_modulus.o)

.debug_aranges  0x00000000      0x4c8
 .debug_aranges
                0x00000000       0x20 ./hello_world_ta.o
 .debug_aranges
                0x00000020       0x20 ./user_ta_header.o
 .debug_aranges
                0x00000040       0x20 /root/devel/optee/optee_os/out/arm/export-ta_arm32/lib/libutee.a(user_ta_entry.o)
 .debug_aranges
                0x00000060       0x28 /root/devel/optee/optee_os/out/arm/export-ta_arm32/lib/libutee.a(tee_api_arith.o)
 .debug_aranges
                0x00000088       0x20 /root/devel/optee/optee_os/out/arm/export-ta_arm32/lib/libutee.a(tee_api.o)
 .debug_aranges
                0x000000a8       0x20 /root/devel/optee/optee_os/out/arm/export-ta_arm32/lib/libutee.a(tee_api_panic.o)
 .debug_aranges
                0x000000c8       0x20 /root/devel/optee/optee_os/out/arm/export-ta_arm32/lib/libutee.a(utee_misc.o)
 .debug_aranges
                0x000000e8       0x20 /root/devel/optee/optee_os/out/arm/export-ta_arm32/lib/libutee.a(tee_user_mem.o)
 .debug_aranges
                0x00000108       0x20 /root/devel/optee/optee_os/out/arm/export-ta_arm32/lib/libutee.a(trace_ext.o)
 .debug_aranges
                0x00000128       0x20 /root/devel/optee/optee_os/out/arm/export-ta_arm32/lib/libutee.a(assert.o)
 .debug_aranges
                0x00000148       0x20 /root/devel/optee/optee_os/out/arm/export-ta_arm32/lib/libutils.a(bget_malloc.o)
 .debug_aranges
                0x00000168       0x20 /root/devel/optee/optee_os/out/arm/export-ta_arm32/lib/libutils.a(snprintf.o)
 .debug_aranges
                0x00000188       0x20 /root/devel/optee/optee_os/out/arm/export-ta_arm32/lib/libutils.a(memcmp.o)
 .debug_aranges
                0x000001a8       0x20 /root/devel/optee/optee_os/out/arm/export-ta_arm32/lib/libutils.a(memcpy.o)
 .debug_aranges
                0x000001c8       0x20 /root/devel/optee/optee_os/out/arm/export-ta_arm32/lib/libutils.a(memmove.o)
 .debug_aranges
                0x000001e8       0x20 /root/devel/optee/optee_os/out/arm/export-ta_arm32/lib/libutils.a(memset.o)
 .debug_aranges
                0x00000208       0x20 /root/devel/optee/optee_os/out/arm/export-ta_arm32/lib/libutils.a(strlen.o)
 .debug_aranges
                0x00000228       0x20 /root/devel/optee/optee_os/out/arm/export-ta_arm32/lib/libutils.a(snprintk.o)
 .debug_aranges
                0x00000248       0x20 /root/devel/optee/optee_os/out/arm/export-ta_arm32/lib/libutils.a(strlcpy.o)
 .debug_aranges
                0x00000268       0x20 /root/devel/optee/optee_os/out/arm/export-ta_arm32/lib/libutils.a(trace.o)
 .debug_aranges
                0x00000288       0x20 /root/devel/optee/optee_os/out/arm/export-ta_arm32/lib/libutils.a(memchr.o)
 .debug_aranges
                0x000002a8       0x20 /root/devel/optee/optee_os/out/arm/export-ta_arm32/lib/libutils.a(arm32_aeabi_ldivmod.o)
 .debug_aranges
                0x000002c8       0x20 /root/devel/optee/optee_os/out/arm/export-ta_arm32/lib/libmpa.a(mpa_misc.o)
 .debug_aranges
                0x000002e8       0x20 /root/devel/optee/optee_os/out/arm/export-ta_arm32/lib/libmpa.a(mpa_montgomery.o)
 .debug_aranges
                0x00000308       0x20 /root/devel/optee/optee_os/out/arm/export-ta_arm32/lib/libmpa.a(mpa_primetest.o)
 .debug_aranges
                0x00000328       0x20 /root/devel/optee/optee_os/out/arm/export-ta_arm32/lib/libmpa.a(mpa_conv.o)
 .debug_aranges
                0x00000348       0x20 /root/devel/optee/optee_os/out/arm/export-ta_arm32/lib/libmpa.a(mpa_div.o)
 .debug_aranges
                0x00000368       0x20 /root/devel/optee/optee_os/out/arm/export-ta_arm32/lib/libmpa.a(mpa_gcd.o)
 .debug_aranges
                0x00000388       0x20 /root/devel/optee/optee_os/out/arm/export-ta_arm32/lib/libmpa.a(mpa_mem_static.o)
 .debug_aranges
                0x000003a8       0x20 /root/devel/optee/optee_os/out/arm/export-ta_arm32/lib/libmpa.a(mpa_mul.o)
 .debug_aranges
                0x000003c8       0x20 /root/devel/optee/optee_os/out/arm/export-ta_arm32/lib/libmpa.a(mpa_random.o)
 .debug_aranges
                0x000003e8       0x20 /root/devel/optee/optee_os/out/arm/export-ta_arm32/lib/libmpa.a(mpa_shift.o)
 .debug_aranges
                0x00000408       0x20 /root/devel/optee/optee_os/out/arm/export-ta_arm32/lib/libmpa.a(mpa_addsub.o)
 .debug_aranges
                0x00000428       0x20 /root/devel/optee/optee_os/out/arm/export-ta_arm32/lib/libmpa.a(mpa_cmp.o)
 .debug_aranges
                0x00000448       0x20 /root/devel/optee/optee_os/out/arm/export-ta_arm32/lib/libmpa.a(mpa_expmod.o)
 .debug_aranges
                0x00000468       0x20 /root/devel/optee/optee_os/out/arm/export-ta_arm32/lib/libmpa.a(mpa_init.o)
 .debug_aranges
                0x00000488       0x20 /root/devel/optee/optee_os/out/arm/export-ta_arm32/lib/libmpa.a(mpa_io.o)
 .debug_aranges
                0x000004a8       0x20 /root/devel/optee/optee_os/out/arm/export-ta_arm32/lib/libmpa.a(mpa_modulus.o)

.debug_macro    0x00000000     0x4ae6
 .debug_macro   0x00000000       0xc5 ./hello_world_ta.o
 .debug_macro   0x000000c5      0x8c2 ./hello_world_ta.o
 .debug_macro   0x00000987      0x166 ./hello_world_ta.o
 .debug_macro   0x00000aed       0x8e ./hello_world_ta.o
 .debug_macro   0x00000b7b      0x908 ./hello_world_ta.o
 .debug_macro   0x00001483      0x188 ./hello_world_ta.o
 .debug_macro   0x0000160b       0x22 ./hello_world_ta.o
 .debug_macro   0x0000162d       0x35 ./hello_world_ta.o
 .debug_macro   0x00001662       0x10 ./hello_world_ta.o
 .debug_macro   0x00001672       0x1c ./hello_world_ta.o
 .debug_macro   0x0000168e       0x34 ./hello_world_ta.o
 .debug_macro   0x000016c2       0x7b ./hello_world_ta.o
 .debug_macro   0x0000173d       0x58 ./hello_world_ta.o
 .debug_macro   0x00001795       0x16 ./hello_world_ta.o
 .debug_macro   0x000017ab       0xd3 ./user_ta_header.o
 .debug_macro   0x0000187e       0x76 ./user_ta_header.o
 .debug_macro   0x000018f4       0x22 ./user_ta_header.o
 .debug_macro   0x00001916      0x16b /root/devel/optee/optee_os/out/arm/export-ta_arm32/lib/libutee.a(user_ta_entry.o)
 .debug_macro   0x00001a81      0x8bc /root/devel/optee/optee_os/out/arm/export-ta_arm32/lib/libutee.a(user_ta_entry.o)
 .debug_macro   0x0000233d      0x1ea /root/devel/optee/optee_os/out/arm/export-ta_arm32/lib/libutee.a(user_ta_entry.o)
 .debug_macro   0x00002527       0x10 /root/devel/optee/optee_os/out/arm/export-ta_arm32/lib/libutee.a(user_ta_entry.o)
 .debug_macro   0x00002537      0x2cd /root/devel/optee/optee_os/out/arm/export-ta_arm32/lib/libutee.a(user_ta_entry.o)
 .debug_macro   0x00002804       0x7b /root/devel/optee/optee_os/out/arm/export-ta_arm32/lib/libutee.a(user_ta_entry.o)
 .debug_macro   0x0000287f       0xca /root/devel/optee/optee_os/out/arm/export-ta_arm32/lib/libutee.a(user_ta_entry.o)
 .debug_macro   0x00002949       0x3a /root/devel/optee/optee_os/out/arm/export-ta_arm32/lib/libutee.a(user_ta_entry.o)
 .debug_macro   0x00002983       0x7c /root/devel/optee/optee_os/out/arm/export-ta_arm32/lib/libutee.a(user_ta_entry.o)
 .debug_macro   0x000029ff       0x10 /root/devel/optee/optee_os/out/arm/export-ta_arm32/lib/libutee.a(user_ta_entry.o)
 .debug_macro   0x00002a0f      0x150 /root/devel/optee/optee_os/out/arm/export-ta_arm32/lib/libutee.a(tee_api_arith.o)
 .debug_macro   0x00002b5f       0x10 /root/devel/optee/optee_os/out/arm/export-ta_arm32/lib/libutee.a(tee_api_arith.o)
 .debug_macro   0x00002b6f       0x4c /root/devel/optee/optee_os/out/arm/export-ta_arm32/lib/libutee.a(tee_api_arith.o)
 .debug_macro   0x00002bbb       0x16 /root/devel/optee/optee_os/out/arm/export-ta_arm32/lib/libutee.a(tee_api_arith.o)
 .debug_macro   0x00002bd1       0x74 /root/devel/optee/optee_os/out/arm/export-ta_arm32/lib/libutee.a(tee_api_arith.o)
 .debug_macro   0x00002c45      0x15a /root/devel/optee/optee_os/out/arm/export-ta_arm32/lib/libutee.a(tee_api.o)
 .debug_macro   0x00002d9f       0xc4 /root/devel/optee/optee_os/out/arm/export-ta_arm32/lib/libutee.a(tee_api.o)
 .debug_macro   0x00002e63       0xad /root/devel/optee/optee_os/out/arm/export-ta_arm32/lib/libutee.a(tee_api_panic.o)
 .debug_macro   0x00002f10       0xf5 /root/devel/optee/optee_os/out/arm/export-ta_arm32/lib/libutee.a(utee_misc.o)
 .debug_macro   0x00003005      0x148 /root/devel/optee/optee_os/out/arm/export-ta_arm32/lib/libutee.a(tee_user_mem.o)
 .debug_macro   0x0000314d      0x1ac /root/devel/optee/optee_os/out/arm/export-ta_arm32/lib/libutee.a(tee_user_mem.o)
 .debug_macro   0x000032f9       0x16 /root/devel/optee/optee_os/out/arm/export-ta_arm32/lib/libutee.a(tee_user_mem.o)
 .debug_macro   0x0000330f       0x46 /root/devel/optee/optee_os/out/arm/export-ta_arm32/lib/libutee.a(tee_user_mem.o)
 .debug_macro   0x00003355       0xd8 /root/devel/optee/optee_os/out/arm/export-ta_arm32/lib/libutee.a(trace_ext.o)
 .debug_macro   0x0000342d       0xf5 /root/devel/optee/optee_os/out/arm/export-ta_arm32/lib/libutee.a(assert.o)
 .debug_macro   0x00003522       0x10 /root/devel/optee/optee_os/out/arm/export-ta_arm32/lib/libutee.a(assert.o)
 .debug_macro   0x00003532      0x115 /root/devel/optee/optee_os/out/arm/export-ta_arm32/lib/libutils.a(bget_malloc.o)
 .debug_macro   0x00003647       0x3c /root/devel/optee/optee_os/out/arm/export-ta_arm32/lib/libutils.a(bget_malloc.o)
 .debug_macro   0x00003683       0x4d /root/devel/optee/optee_os/out/arm/export-ta_arm32/lib/libutils.a(snprintf.o)
 .debug_macro   0x000036d0       0x51 /root/devel/optee/optee_os/out/arm/export-ta_arm32/lib/libutils.a(memcmp.o)
 .debug_macro   0x00003721       0x7c /root/devel/optee/optee_os/out/arm/export-ta_arm32/lib/libutils.a(memcmp.o)
 .debug_macro   0x0000379d       0x57 /root/devel/optee/optee_os/out/arm/export-ta_arm32/lib/libutils.a(memcpy.o)
 .debug_macro   0x000037f4       0x64 /root/devel/optee/optee_os/out/arm/export-ta_arm32/lib/libutils.a(memmove.o)
 .debug_macro   0x00003858       0x51 /root/devel/optee/optee_os/out/arm/export-ta_arm32/lib/libutils.a(memset.o)
 .debug_macro   0x000038a9       0x5a /root/devel/optee/optee_os/out/arm/export-ta_arm32/lib/libutils.a(strlen.o)
 .debug_macro   0x00003903      0x127 /root/devel/optee/optee_os/out/arm/export-ta_arm32/lib/libutils.a(snprintk.o)
 .debug_macro   0x00003a2a       0x87 /root/devel/optee/optee_os/out/arm/export-ta_arm32/lib/libutils.a(strlcpy.o)
 .debug_macro   0x00003ab1       0xd3 /root/devel/optee/optee_os/out/arm/export-ta_arm32/lib/libutils.a(trace.o)
 .debug_macro   0x00003b84       0x66 /root/devel/optee/optee_os/out/arm/export-ta_arm32/lib/libutils.a(memchr.o)
 .debug_macro   0x00003bea       0x1a /root/devel/optee/optee_os/out/arm/export-ta_arm32/lib/libutils.a(arm32_aeabi_ldivmod.o)
 .debug_macro   0x00003c04       0xdd /root/devel/optee/optee_os/out/arm/export-ta_arm32/lib/libmpa.a(mpa_misc.o)
 .debug_macro   0x00003ce1       0xa6 /root/devel/optee/optee_os/out/arm/export-ta_arm32/lib/libmpa.a(mpa_misc.o)
 .debug_macro   0x00003d87       0xdd /root/devel/optee/optee_os/out/arm/export-ta_arm32/lib/libmpa.a(mpa_montgomery.o)
 .debug_macro   0x00003e64       0xff /root/devel/optee/optee_os/out/arm/export-ta_arm32/lib/libmpa.a(mpa_primetest.o)
 .debug_macro   0x00003f63       0xdd /root/devel/optee/optee_os/out/arm/export-ta_arm32/lib/libmpa.a(mpa_conv.o)
 .debug_macro   0x00004040       0xdd /root/devel/optee/optee_os/out/arm/export-ta_arm32/lib/libmpa.a(mpa_div.o)
 .debug_macro   0x0000411d       0xdd /root/devel/optee/optee_os/out/arm/export-ta_arm32/lib/libmpa.a(mpa_gcd.o)
 .debug_macro   0x000041fa      0x102 /root/devel/optee/optee_os/out/arm/export-ta_arm32/lib/libmpa.a(mpa_mem_static.o)
 .debug_macro   0x000042fc       0xdd /root/devel/optee/optee_os/out/arm/export-ta_arm32/lib/libmpa.a(mpa_mul.o)
 .debug_macro   0x000043d9       0xf9 /root/devel/optee/optee_os/out/arm/export-ta_arm32/lib/libmpa.a(mpa_random.o)
 .debug_macro   0x000044d2       0xdd /root/devel/optee/optee_os/out/arm/export-ta_arm32/lib/libmpa.a(mpa_shift.o)
 .debug_macro   0x000045af       0xdd /root/devel/optee/optee_os/out/arm/export-ta_arm32/lib/libmpa.a(mpa_addsub.o)
 .debug_macro   0x0000468c       0xdd /root/devel/optee/optee_os/out/arm/export-ta_arm32/lib/libmpa.a(mpa_cmp.o)
 .debug_macro   0x00004769       0xdd /root/devel/optee/optee_os/out/arm/export-ta_arm32/lib/libmpa.a(mpa_expmod.o)
 .debug_macro   0x00004846       0xdd /root/devel/optee/optee_os/out/arm/export-ta_arm32/lib/libmpa.a(mpa_init.o)
 .debug_macro   0x00004923       0xe6 /root/devel/optee/optee_os/out/arm/export-ta_arm32/lib/libmpa.a(mpa_io.o)
 .debug_macro   0x00004a09       0xdd /root/devel/optee/optee_os/out/arm/export-ta_arm32/lib/libmpa.a(mpa_modulus.o)

.debug_line     0x00000000     0x599e
 .debug_line    0x00000000      0x1ef ./hello_world_ta.o
 .debug_line    0x000001ef      0x213 ./user_ta_header.o
 .debug_line    0x00000402      0x3ca /root/devel/optee/optee_os/out/arm/export-ta_arm32/lib/libutee.a(user_ta_entry.o)
 .debug_line    0x000007cc      0x3b7 /root/devel/optee/optee_os/out/arm/export-ta_arm32/lib/libutee.a(tee_api_arith.o)
 .debug_line    0x00000b83      0x363 /root/devel/optee/optee_os/out/arm/export-ta_arm32/lib/libutee.a(tee_api.o)
 .debug_line    0x00000ee6      0x1c0 /root/devel/optee/optee_os/out/arm/export-ta_arm32/lib/libutee.a(tee_api_panic.o)
 .debug_line    0x000010a6      0x22c /root/devel/optee/optee_os/out/arm/export-ta_arm32/lib/libutee.a(utee_misc.o)
 .debug_line    0x000012d2      0x3aa /root/devel/optee/optee_os/out/arm/export-ta_arm32/lib/libutee.a(tee_user_mem.o)
 .debug_line    0x0000167c      0x246 /root/devel/optee/optee_os/out/arm/export-ta_arm32/lib/libutee.a(trace_ext.o)
 .debug_line    0x000018c2      0x224 /root/devel/optee/optee_os/out/arm/export-ta_arm32/lib/libutee.a(assert.o)
 .debug_line    0x00001ae6      0x503 /root/devel/optee/optee_os/out/arm/export-ta_arm32/lib/libutils.a(bget_malloc.o)
 .debug_line    0x00001fe9      0x146 /root/devel/optee/optee_os/out/arm/export-ta_arm32/lib/libutils.a(snprintf.o)
 .debug_line    0x0000212f      0x135 /root/devel/optee/optee_os/out/arm/export-ta_arm32/lib/libutils.a(memcmp.o)
 .debug_line    0x00002264      0x132 /root/devel/optee/optee_os/out/arm/export-ta_arm32/lib/libutils.a(memcpy.o)
 .debug_line    0x00002396      0x14c /root/devel/optee/optee_os/out/arm/export-ta_arm32/lib/libutils.a(memmove.o)
 .debug_line    0x000024e2      0x133 /root/devel/optee/optee_os/out/arm/export-ta_arm32/lib/libutils.a(memset.o)
 .debug_line    0x00002615      0x13d /root/devel/optee/optee_os/out/arm/export-ta_arm32/lib/libutils.a(strlen.o)
 .debug_line    0x00002752      0x313 /root/devel/optee/optee_os/out/arm/export-ta_arm32/lib/libutils.a(snprintk.o)
 .debug_line    0x00002a65      0x196 /root/devel/optee/optee_os/out/arm/export-ta_arm32/lib/libutils.a(strlcpy.o)
 .debug_line    0x00002bfb      0x290 /root/devel/optee/optee_os/out/arm/export-ta_arm32/lib/libutils.a(trace.o)
 .debug_line    0x00002e8b      0x141 /root/devel/optee/optee_os/out/arm/export-ta_arm32/lib/libutils.a(memchr.o)
 .debug_line    0x00002fcc       0xfd /root/devel/optee/optee_os/out/arm/export-ta_arm32/lib/libutils.a(arm32_aeabi_ldivmod.o)
 .debug_line    0x000030c9      0x221 /root/devel/optee/optee_os/out/arm/export-ta_arm32/lib/libmpa.a(mpa_misc.o)
 .debug_line    0x000032ea      0x297 /root/devel/optee/optee_os/out/arm/export-ta_arm32/lib/libmpa.a(mpa_montgomery.o)
 .debug_line    0x00003581      0x270 /root/devel/optee/optee_os/out/arm/export-ta_arm32/lib/libmpa.a(mpa_primetest.o)
 .debug_line    0x000037f1      0x21e /root/devel/optee/optee_os/out/arm/export-ta_arm32/lib/libmpa.a(mpa_conv.o)
 .debug_line    0x00003a0f      0x2f0 /root/devel/optee/optee_os/out/arm/export-ta_arm32/lib/libmpa.a(mpa_div.o)
 .debug_line    0x00003cff      0x334 /root/devel/optee/optee_os/out/arm/export-ta_arm32/lib/libmpa.a(mpa_gcd.o)
 .debug_line    0x00004033      0x266 /root/devel/optee/optee_os/out/arm/export-ta_arm32/lib/libmpa.a(mpa_mem_static.o)
 .debug_line    0x00004299      0x2a5 /root/devel/optee/optee_os/out/arm/export-ta_arm32/lib/libmpa.a(mpa_mul.o)
 .debug_line    0x0000453e      0x25d /root/devel/optee/optee_os/out/arm/export-ta_arm32/lib/libmpa.a(mpa_random.o)
 .debug_line    0x0000479b      0x2e2 /root/devel/optee/optee_os/out/arm/export-ta_arm32/lib/libmpa.a(mpa_shift.o)
 .debug_line    0x00004a7d      0x343 /root/devel/optee/optee_os/out/arm/export-ta_arm32/lib/libmpa.a(mpa_addsub.o)
 .debug_line    0x00004dc0      0x248 /root/devel/optee/optee_os/out/arm/export-ta_arm32/lib/libmpa.a(mpa_cmp.o)
 .debug_line    0x00005008      0x21f /root/devel/optee/optee_os/out/arm/export-ta_arm32/lib/libmpa.a(mpa_expmod.o)
 .debug_line    0x00005227      0x1ff /root/devel/optee/optee_os/out/arm/export-ta_arm32/lib/libmpa.a(mpa_init.o)
 .debug_line    0x00005426      0x353 /root/devel/optee/optee_os/out/arm/export-ta_arm32/lib/libmpa.a(mpa_io.o)
 .debug_line    0x00005779      0x225 /root/devel/optee/optee_os/out/arm/export-ta_arm32/lib/libmpa.a(mpa_modulus.o)

.debug_str      0x00000000     0xf642
 .debug_str     0x00000000     0x6afd ./hello_world_ta.o
                               0x6c79 (size before relaxing)
 .debug_str     0x00006afd      0x65e ./user_ta_header.o
                               0x717a (size before relaxing)
 .debug_str     0x0000715b     0x42a5 /root/devel/optee/optee_os/out/arm/export-ta_arm32/lib/libutee.a(user_ta_entry.o)
                               0xb0aa (size before relaxing)
 .debug_str     0x0000b400      0xc8a /root/devel/optee/optee_os/out/arm/export-ta_arm32/lib/libutee.a(tee_api_arith.o)
                               0x84b5 (size before relaxing)
 .debug_str     0x0000c08a      0x459 /root/devel/optee/optee_os/out/arm/export-ta_arm32/lib/libutee.a(tee_api.o)
                               0x7f7e (size before relaxing)
 .debug_str     0x0000c4e3       0x31 /root/devel/optee/optee_os/out/arm/export-ta_arm32/lib/libutee.a(tee_api_panic.o)
                               0x734e (size before relaxing)
 .debug_str     0x0000c514       0x93 /root/devel/optee/optee_os/out/arm/export-ta_arm32/lib/libutee.a(utee_misc.o)
                               0x75dd (size before relaxing)
 .debug_str     0x0000c5a7     0x1100 /root/devel/optee/optee_os/out/arm/export-ta_arm32/lib/libutee.a(tee_user_mem.o)
                               0xbb28 (size before relaxing)
 .debug_str     0x0000d6a7       0xa0 /root/devel/optee/optee_os/out/arm/export-ta_arm32/lib/libutee.a(trace_ext.o)
                               0x7786 (size before relaxing)
 .debug_str     0x0000d747       0x1f /root/devel/optee/optee_os/out/arm/export-ta_arm32/lib/libutee.a(assert.o)
                               0x761f (size before relaxing)
 .debug_str     0x0000d766      0x548 /root/devel/optee/optee_os/out/arm/export-ta_arm32/lib/libutils.a(bget_malloc.o)
                               0x4718 (size before relaxing)
 .debug_str     0x0000dcae       0x3a /root/devel/optee/optee_os/out/arm/export-ta_arm32/lib/libutils.a(snprintf.o)
                               0x30d3 (size before relaxing)
 .debug_str     0x0000dce8      0x241 /root/devel/optee/optee_os/out/arm/export-ta_arm32/lib/libutils.a(memcmp.o)
                               0x3153 (size before relaxing)
 .debug_str     0x0000df29       0x9c /root/devel/optee/optee_os/out/arm/export-ta_arm32/lib/libutils.a(memcpy.o)
                               0x3186 (size before relaxing)
 .debug_str     0x0000dfc5       0x3c /root/devel/optee/optee_os/out/arm/export-ta_arm32/lib/libutils.a(memmove.o)
                               0x336c (size before relaxing)
 .debug_str     0x0000e001       0x4c /root/devel/optee/optee_os/out/arm/export-ta_arm32/lib/libutils.a(memset.o)
                               0x3123 (size before relaxing)
 .debug_str     0x0000e04d       0x59 /root/devel/optee/optee_os/out/arm/export-ta_arm32/lib/libutils.a(strlen.o)
                               0x331b (size before relaxing)
 .debug_str     0x0000e0a6      0x57c /root/devel/optee/optee_os/out/arm/export-ta_arm32/lib/libutils.a(snprintk.o)
                               0x3c24 (size before relaxing)
 .debug_str     0x0000e622       0x1b /root/devel/optee/optee_os/out/arm/export-ta_arm32/lib/libutils.a(strlcpy.o)
                               0x3936 (size before relaxing)
 .debug_str     0x0000e63d       0x98 /root/devel/optee/optee_os/out/arm/export-ta_arm32/lib/libutils.a(trace.o)
                               0x4679 (size before relaxing)
 .debug_str     0x0000e6d5       0x78 /root/devel/optee/optee_os/out/arm/export-ta_arm32/lib/libutils.a(memchr.o)
                               0x337e (size before relaxing)
 .debug_str     0x0000e74d       0x86 /root/devel/optee/optee_os/out/arm/export-ta_arm32/lib/libutils.a(arm32_aeabi_ldivmod.o)
                               0x2c91 (size before relaxing)
 .debug_str     0x0000e7d3      0x537 /root/devel/optee/optee_os/out/arm/export-ta_arm32/lib/libmpa.a(mpa_misc.o)
                               0x4818 (size before relaxing)
 .debug_str     0x0000ed0a       0xea /root/devel/optee/optee_os/out/arm/export-ta_arm32/lib/libmpa.a(mpa_montgomery.o)
                               0x4980 (size before relaxing)
 .debug_str     0x0000edf4      0x1b5 /root/devel/optee/optee_os/out/arm/export-ta_arm32/lib/libmpa.a(mpa_primetest.o)
                               0x4a4d (size before relaxing)
 .debug_str     0x0000efa9       0x20 /root/devel/optee/optee_os/out/arm/export-ta_arm32/lib/libmpa.a(mpa_conv.o)
                               0x478b (size before relaxing)
 .debug_str     0x0000efc9      0x14c /root/devel/optee/optee_os/out/arm/export-ta_arm32/lib/libmpa.a(mpa_div.o)
                               0x49b7 (size before relaxing)
 .debug_str     0x0000f115       0x8b /root/devel/optee/optee_os/out/arm/export-ta_arm32/lib/libmpa.a(mpa_gcd.o)
                               0x48e7 (size before relaxing)
 .debug_str     0x0000f1a0       0xbf /root/devel/optee/optee_os/out/arm/export-ta_arm32/lib/libmpa.a(mpa_mem_static.o)
                               0x505b (size before relaxing)
 .debug_str     0x0000f25f       0x59 /root/devel/optee/optee_os/out/arm/export-ta_arm32/lib/libmpa.a(mpa_mul.o)
                               0x48bc (size before relaxing)
 .debug_str     0x0000f2b8       0x31 /root/devel/optee/optee_os/out/arm/export-ta_arm32/lib/libmpa.a(mpa_random.o)
                               0x7baf (size before relaxing)
 .debug_str     0x0000f2e9       0x33 /root/devel/optee/optee_os/out/arm/export-ta_arm32/lib/libmpa.a(mpa_shift.o)
                               0x47f7 (size before relaxing)
 .debug_str     0x0000f31c       0xf8 /root/devel/optee/optee_os/out/arm/export-ta_arm32/lib/libmpa.a(mpa_addsub.o)
                               0x498c (size before relaxing)
 .debug_str     0x0000f414       0x3c /root/devel/optee/optee_os/out/arm/export-ta_arm32/lib/libmpa.a(mpa_cmp.o)
                               0x47c3 (size before relaxing)
 .debug_str     0x0000f450       0x33 /root/devel/optee/optee_os/out/arm/export-ta_arm32/lib/libmpa.a(mpa_expmod.o)
                               0x48b1 (size before relaxing)
 .debug_str     0x0000f483       0x16 /root/devel/optee/optee_os/out/arm/export-ta_arm32/lib/libmpa.a(mpa_init.o)
                               0x47cc (size before relaxing)
 .debug_str     0x0000f499      0x190 /root/devel/optee/optee_os/out/arm/export-ta_arm32/lib/libmpa.a(mpa_io.o)
                               0x4a4f (size before relaxing)
 .debug_str     0x0000f629       0x19 /root/devel/optee/optee_os/out/arm/export-ta_arm32/lib/libmpa.a(mpa_modulus.o)
                               0x48ac (size before relaxing)

.comment        0x00000000       0x63
 .comment       0x00000000       0x63 ./hello_world_ta.o
                                 0x64 (size before relaxing)
 .comment       0x00000000       0x64 ./user_ta_header.o
 .comment       0x00000000       0x64 /root/devel/optee/optee_os/out/arm/export-ta_arm32/lib/libutee.a(user_ta_entry.o)
 .comment       0x00000000       0x64 /root/devel/optee/optee_os/out/arm/export-ta_arm32/lib/libutee.a(tee_api_arith.o)
 .comment       0x00000000       0x64 /root/devel/optee/optee_os/out/arm/export-ta_arm32/lib/libutee.a(tee_api.o)
 .comment       0x00000000       0x64 /root/devel/optee/optee_os/out/arm/export-ta_arm32/lib/libutee.a(tee_api_panic.o)
 .comment       0x00000000       0x64 /root/devel/optee/optee_os/out/arm/export-ta_arm32/lib/libutee.a(utee_misc.o)
 .comment       0x00000000       0x64 /root/devel/optee/optee_os/out/arm/export-ta_arm32/lib/libutee.a(tee_user_mem.o)
 .comment       0x00000000       0x64 /root/devel/optee/optee_os/out/arm/export-ta_arm32/lib/libutee.a(trace_ext.o)
 .comment       0x00000000       0x64 /root/devel/optee/optee_os/out/arm/export-ta_arm32/lib/libutee.a(assert.o)
 .comment       0x00000000       0x64 /root/devel/optee/optee_os/out/arm/export-ta_arm32/lib/libutils.a(bget_malloc.o)
 .comment       0x00000000       0x64 /root/devel/optee/optee_os/out/arm/export-ta_arm32/lib/libutils.a(snprintf.o)
 .comment       0x00000000       0x64 /root/devel/optee/optee_os/out/arm/export-ta_arm32/lib/libutils.a(memcmp.o)
 .comment       0x00000000       0x64 /root/devel/optee/optee_os/out/arm/export-ta_arm32/lib/libutils.a(memcpy.o)
 .comment       0x00000000       0x64 /root/devel/optee/optee_os/out/arm/export-ta_arm32/lib/libutils.a(memmove.o)
 .comment       0x00000000       0x64 /root/devel/optee/optee_os/out/arm/export-ta_arm32/lib/libutils.a(memset.o)
 .comment       0x00000000       0x64 /root/devel/optee/optee_os/out/arm/export-ta_arm32/lib/libutils.a(strlen.o)
 .comment       0x00000000       0x64 /root/devel/optee/optee_os/out/arm/export-ta_arm32/lib/libutils.a(snprintk.o)
 .comment       0x00000000       0x64 /root/devel/optee/optee_os/out/arm/export-ta_arm32/lib/libutils.a(strlcpy.o)
 .comment       0x00000000       0x64 /root/devel/optee/optee_os/out/arm/export-ta_arm32/lib/libutils.a(trace.o)
 .comment       0x00000000       0x64 /root/devel/optee/optee_os/out/arm/export-ta_arm32/lib/libutils.a(memchr.o)
 .comment       0x00000000       0x64 /root/devel/optee/optee_os/out/arm/export-ta_arm32/lib/libutils.a(arm32_aeabi_ldivmod.o)
 .comment       0x00000000       0x64 /root/devel/optee/optee_os/out/arm/export-ta_arm32/lib/libmpa.a(mpa_misc.o)
 .comment       0x00000000       0x64 /root/devel/optee/optee_os/out/arm/export-ta_arm32/lib/libmpa.a(mpa_montgomery.o)
 .comment       0x00000000       0x64 /root/devel/optee/optee_os/out/arm/export-ta_arm32/lib/libmpa.a(mpa_primetest.o)
 .comment       0x00000000       0x64 /root/devel/optee/optee_os/out/arm/export-ta_arm32/lib/libmpa.a(mpa_conv.o)
 .comment       0x00000000       0x64 /root/devel/optee/optee_os/out/arm/export-ta_arm32/lib/libmpa.a(mpa_div.o)
 .comment       0x00000000       0x64 /root/devel/optee/optee_os/out/arm/export-ta_arm32/lib/libmpa.a(mpa_gcd.o)
 .comment       0x00000000       0x64 /root/devel/optee/optee_os/out/arm/export-ta_arm32/lib/libmpa.a(mpa_mem_static.o)
 .comment       0x00000000       0x64 /root/devel/optee/optee_os/out/arm/export-ta_arm32/lib/libmpa.a(mpa_mul.o)
 .comment       0x00000000       0x64 /root/devel/optee/optee_os/out/arm/export-ta_arm32/lib/libmpa.a(mpa_random.o)
 .comment       0x00000000       0x64 /root/devel/optee/optee_os/out/arm/export-ta_arm32/lib/libmpa.a(mpa_shift.o)
 .comment       0x00000000       0x64 /root/devel/optee/optee_os/out/arm/export-ta_arm32/lib/libmpa.a(mpa_addsub.o)
 .comment       0x00000000       0x64 /root/devel/optee/optee_os/out/arm/export-ta_arm32/lib/libmpa.a(mpa_cmp.o)
 .comment       0x00000000       0x64 /root/devel/optee/optee_os/out/arm/export-ta_arm32/lib/libmpa.a(mpa_expmod.o)
 .comment       0x00000000       0x64 /root/devel/optee/optee_os/out/arm/export-ta_arm32/lib/libmpa.a(mpa_init.o)
 .comment       0x00000000       0x64 /root/devel/optee/optee_os/out/arm/export-ta_arm32/lib/libmpa.a(mpa_io.o)
 .comment       0x00000000       0x64 /root/devel/optee/optee_os/out/arm/export-ta_arm32/lib/libmpa.a(mpa_modulus.o)

.note.GNU-stack
                0x00000000        0x0
 .note.GNU-stack
                0x00000000        0x0 ./hello_world_ta.o
 .note.GNU-stack
                0x00000000        0x0 ./user_ta_header.o
 .note.GNU-stack
                0x00000000        0x0 /root/devel/optee/optee_os/out/arm/export-ta_arm32/lib/libutee.a(user_ta_entry.o)
 .note.GNU-stack
                0x00000000        0x0 /root/devel/optee/optee_os/out/arm/export-ta_arm32/lib/libutee.a(tee_api_arith.o)
 .note.GNU-stack
                0x00000000        0x0 /root/devel/optee/optee_os/out/arm/export-ta_arm32/lib/libutee.a(tee_api.o)
 .note.GNU-stack
                0x00000000        0x0 /root/devel/optee/optee_os/out/arm/export-ta_arm32/lib/libutee.a(tee_api_panic.o)
 .note.GNU-stack
                0x00000000        0x0 /root/devel/optee/optee_os/out/arm/export-ta_arm32/lib/libutee.a(utee_misc.o)
 .note.GNU-stack
                0x00000000        0x0 /root/devel/optee/optee_os/out/arm/export-ta_arm32/lib/libutee.a(tee_user_mem.o)
 .note.GNU-stack
                0x00000000        0x0 /root/devel/optee/optee_os/out/arm/export-ta_arm32/lib/libutee.a(trace_ext.o)
 .note.GNU-stack
                0x00000000        0x0 /root/devel/optee/optee_os/out/arm/export-ta_arm32/lib/libutee.a(assert.o)
 .note.GNU-stack
                0x00000000        0x0 /root/devel/optee/optee_os/out/arm/export-ta_arm32/lib/libutils.a(bget_malloc.o)
 .note.GNU-stack
                0x00000000        0x0 /root/devel/optee/optee_os/out/arm/export-ta_arm32/lib/libutils.a(snprintf.o)
 .note.GNU-stack
                0x00000000        0x0 /root/devel/optee/optee_os/out/arm/export-ta_arm32/lib/libutils.a(memcmp.o)
 .note.GNU-stack
                0x00000000        0x0 /root/devel/optee/optee_os/out/arm/export-ta_arm32/lib/libutils.a(memcpy.o)
 .note.GNU-stack
                0x00000000        0x0 /root/devel/optee/optee_os/out/arm/export-ta_arm32/lib/libutils.a(memmove.o)
 .note.GNU-stack
                0x00000000        0x0 /root/devel/optee/optee_os/out/arm/export-ta_arm32/lib/libutils.a(memset.o)
 .note.GNU-stack
                0x00000000        0x0 /root/devel/optee/optee_os/out/arm/export-ta_arm32/lib/libutils.a(strlen.o)
 .note.GNU-stack
                0x00000000        0x0 /root/devel/optee/optee_os/out/arm/export-ta_arm32/lib/libutils.a(snprintk.o)
 .note.GNU-stack
                0x00000000        0x0 /root/devel/optee/optee_os/out/arm/export-ta_arm32/lib/libutils.a(strlcpy.o)
 .note.GNU-stack
                0x00000000        0x0 /root/devel/optee/optee_os/out/arm/export-ta_arm32/lib/libutils.a(trace.o)
 .note.GNU-stack
                0x00000000        0x0 /root/devel/optee/optee_os/out/arm/export-ta_arm32/lib/libutils.a(memchr.o)
 .note.GNU-stack
                0x00000000        0x0 /root/devel/optee/optee_os/out/arm/export-ta_arm32/lib/libutils.a(arm32_aeabi_ldivmod.o)
 .note.GNU-stack
                0x00000000        0x0 /root/devel/optee/optee_os/out/arm/export-ta_arm32/lib/libmpa.a(mpa_misc.o)
 .note.GNU-stack
                0x00000000        0x0 /root/devel/optee/optee_os/out/arm/export-ta_arm32/lib/libmpa.a(mpa_montgomery.o)
 .note.GNU-stack
                0x00000000        0x0 /root/devel/optee/optee_os/out/arm/export-ta_arm32/lib/libmpa.a(mpa_primetest.o)
 .note.GNU-stack
                0x00000000        0x0 /root/devel/optee/optee_os/out/arm/export-ta_arm32/lib/libmpa.a(mpa_conv.o)
 .note.GNU-stack
                0x00000000        0x0 /root/devel/optee/optee_os/out/arm/export-ta_arm32/lib/libmpa.a(mpa_div.o)
 .note.GNU-stack
                0x00000000        0x0 /root/devel/optee/optee_os/out/arm/export-ta_arm32/lib/libmpa.a(mpa_gcd.o)
 .note.GNU-stack
                0x00000000        0x0 /root/devel/optee/optee_os/out/arm/export-ta_arm32/lib/libmpa.a(mpa_mem_static.o)
 .note.GNU-stack
                0x00000000        0x0 /root/devel/optee/optee_os/out/arm/export-ta_arm32/lib/libmpa.a(mpa_mul.o)
 .note.GNU-stack
                0x00000000        0x0 /root/devel/optee/optee_os/out/arm/export-ta_arm32/lib/libmpa.a(mpa_random.o)
 .note.GNU-stack
                0x00000000        0x0 /root/devel/optee/optee_os/out/arm/export-ta_arm32/lib/libmpa.a(mpa_shift.o)
 .note.GNU-stack
                0x00000000        0x0 /root/devel/optee/optee_os/out/arm/export-ta_arm32/lib/libmpa.a(mpa_addsub.o)
 .note.GNU-stack
                0x00000000        0x0 /root/devel/optee/optee_os/out/arm/export-ta_arm32/lib/libmpa.a(mpa_cmp.o)
 .note.GNU-stack
                0x00000000        0x0 /root/devel/optee/optee_os/out/arm/export-ta_arm32/lib/libmpa.a(mpa_expmod.o)
 .note.GNU-stack
                0x00000000        0x0 /root/devel/optee/optee_os/out/arm/export-ta_arm32/lib/libmpa.a(mpa_init.o)
 .note.GNU-stack
                0x00000000        0x0 /root/devel/optee/optee_os/out/arm/export-ta_arm32/lib/libmpa.a(mpa_io.o)
 .note.GNU-stack
                0x00000000        0x0 /root/devel/optee/optee_os/out/arm/export-ta_arm32/lib/libmpa.a(mpa_modulus.o)

.ARM.attributes
                0x00000000       0x3a
 .ARM.attributes
                0x00000000       0x3c ./hello_world_ta.o
 .ARM.attributes
                0x0000003c       0x3c ./user_ta_header.o
 .ARM.attributes
                0x00000078       0x3c /root/devel/optee/optee_os/out/arm/export-ta_arm32/lib/libutee.a(user_ta_entry.o)
 .ARM.attributes
                0x000000b4       0x2c /root/devel/optee/optee_os/out/arm/export-ta_arm32/lib/libutee.a(utee_syscalls_a32.o)
 .ARM.attributes
                0x000000e0       0x3c /root/devel/optee/optee_os/out/arm/export-ta_arm32/lib/libutee.a(tee_api_arith.o)
 .ARM.attributes
                0x0000011c       0x3c /root/devel/optee/optee_os/out/arm/export-ta_arm32/lib/libutee.a(tee_api.o)
 .ARM.attributes
                0x00000158       0x3c /root/devel/optee/optee_os/out/arm/export-ta_arm32/lib/libutee.a(tee_api_panic.o)
 .ARM.attributes
                0x00000194       0x3c /root/devel/optee/optee_os/out/arm/export-ta_arm32/lib/libutee.a(utee_misc.o)
 .ARM.attributes
                0x000001d0       0x3c /root/devel/optee/optee_os/out/arm/export-ta_arm32/lib/libutee.a(tee_user_mem.o)
 .ARM.attributes
                0x0000020c       0x3c /root/devel/optee/optee_os/out/arm/export-ta_arm32/lib/libutee.a(trace_ext.o)
 .ARM.attributes
                0x00000248       0x3c /root/devel/optee/optee_os/out/arm/export-ta_arm32/lib/libutee.a(assert.o)
 .ARM.attributes
                0x00000284       0x3c /root/devel/optee/optee_os/out/arm/export-ta_arm32/lib/libutils.a(bget_malloc.o)
 .ARM.attributes
                0x000002c0       0x3c /root/devel/optee/optee_os/out/arm/export-ta_arm32/lib/libutils.a(snprintf.o)
 .ARM.attributes
                0x000002fc       0x3c /root/devel/optee/optee_os/out/arm/export-ta_arm32/lib/libutils.a(memcmp.o)
 .ARM.attributes
                0x00000338       0x3c /root/devel/optee/optee_os/out/arm/export-ta_arm32/lib/libutils.a(memcpy.o)
 .ARM.attributes
                0x00000374       0x3c /root/devel/optee/optee_os/out/arm/export-ta_arm32/lib/libutils.a(memmove.o)
 .ARM.attributes
                0x000003b0       0x3c /root/devel/optee/optee_os/out/arm/export-ta_arm32/lib/libutils.a(memset.o)
 .ARM.attributes
                0x000003ec       0x3c /root/devel/optee/optee_os/out/arm/export-ta_arm32/lib/libutils.a(strlen.o)
 .ARM.attributes
                0x00000428       0x3c /root/devel/optee/optee_os/out/arm/export-ta_arm32/lib/libutils.a(snprintk.o)
 .ARM.attributes
                0x00000464       0x3c /root/devel/optee/optee_os/out/arm/export-ta_arm32/lib/libutils.a(strlcpy.o)
 .ARM.attributes
                0x000004a0       0x3c /root/devel/optee/optee_os/out/arm/export-ta_arm32/lib/libutils.a(trace.o)
 .ARM.attributes
                0x000004dc       0x3c /root/devel/optee/optee_os/out/arm/export-ta_arm32/lib/libutils.a(memchr.o)
 .ARM.attributes
                0x00000518       0x2c /root/devel/optee/optee_os/out/arm/export-ta_arm32/lib/libutils.a(arm32_aeabi_ldivmod_a32.o)
 .ARM.attributes
                0x00000544       0x3c /root/devel/optee/optee_os/out/arm/export-ta_arm32/lib/libutils.a(arm32_aeabi_ldivmod.o)
 .ARM.attributes
                0x00000580       0x3c /root/devel/optee/optee_os/out/arm/export-ta_arm32/lib/libmpa.a(mpa_misc.o)
 .ARM.attributes
                0x000005bc       0x3c /root/devel/optee/optee_os/out/arm/export-ta_arm32/lib/libmpa.a(mpa_montgomery.o)
 .ARM.attributes
                0x000005f8       0x3c /root/devel/optee/optee_os/out/arm/export-ta_arm32/lib/libmpa.a(mpa_primetest.o)
 .ARM.attributes
                0x00000634       0x3c /root/devel/optee/optee_os/out/arm/export-ta_arm32/lib/libmpa.a(mpa_conv.o)
 .ARM.attributes
                0x00000670       0x3c /root/devel/optee/optee_os/out/arm/export-ta_arm32/lib/libmpa.a(mpa_div.o)
 .ARM.attributes
                0x000006ac       0x3c /root/devel/optee/optee_os/out/arm/export-ta_arm32/lib/libmpa.a(mpa_gcd.o)
 .ARM.attributes
                0x000006e8       0x3c /root/devel/optee/optee_os/out/arm/export-ta_arm32/lib/libmpa.a(mpa_mem_static.o)
 .ARM.attributes
                0x00000724       0x3c /root/devel/optee/optee_os/out/arm/export-ta_arm32/lib/libmpa.a(mpa_mul.o)
 .ARM.attributes
                0x00000760       0x3c /root/devel/optee/optee_os/out/arm/export-ta_arm32/lib/libmpa.a(mpa_random.o)
 .ARM.attributes
                0x0000079c       0x3c /root/devel/optee/optee_os/out/arm/export-ta_arm32/lib/libmpa.a(mpa_shift.o)
 .ARM.attributes
                0x000007d8       0x3c /root/devel/optee/optee_os/out/arm/export-ta_arm32/lib/libmpa.a(mpa_addsub.o)
 .ARM.attributes
                0x00000814       0x3c /root/devel/optee/optee_os/out/arm/export-ta_arm32/lib/libmpa.a(mpa_cmp.o)
 .ARM.attributes
                0x00000850       0x3c /root/devel/optee/optee_os/out/arm/export-ta_arm32/lib/libmpa.a(mpa_expmod.o)
 .ARM.attributes
                0x0000088c       0x3c /root/devel/optee/optee_os/out/arm/export-ta_arm32/lib/libmpa.a(mpa_init.o)
 .ARM.attributes
                0x000008c8       0x3c /root/devel/optee/optee_os/out/arm/export-ta_arm32/lib/libmpa.a(mpa_io.o)
 .ARM.attributes
                0x00000904       0x3c /root/devel/optee/optee_os/out/arm/export-ta_arm32/lib/libmpa.a(mpa_modulus.o)

.debug_frame    0x00000000     0x18ec
 .debug_frame   0x00000000       0x74 ./hello_world_ta.o
 .debug_frame   0x00000074       0x20 ./user_ta_header.o
 .debug_frame   0x00000094       0x6c /root/devel/optee/optee_os/out/arm/export-ta_arm32/lib/libutee.a(user_ta_entry.o)
 .debug_frame   0x00000100      0x370 /root/devel/optee/optee_os/out/arm/export-ta_arm32/lib/libutee.a(tee_api_arith.o)
 .debug_frame   0x00000470      0x278 /root/devel/optee/optee_os/out/arm/export-ta_arm32/lib/libutee.a(tee_api.o)
 .debug_frame   0x000006e8       0x40 /root/devel/optee/optee_os/out/arm/export-ta_arm32/lib/libutee.a(tee_api_panic.o)
 .debug_frame   0x00000728       0x70 /root/devel/optee/optee_os/out/arm/export-ta_arm32/lib/libutee.a(utee_misc.o)
 .debug_frame   0x00000798      0x114 /root/devel/optee/optee_os/out/arm/export-ta_arm32/lib/libutee.a(tee_user_mem.o)
 .debug_frame   0x000008ac       0x90 /root/devel/optee/optee_os/out/arm/export-ta_arm32/lib/libutee.a(trace_ext.o)
 .debug_frame   0x0000093c       0x40 /root/devel/optee/optee_os/out/arm/export-ta_arm32/lib/libutee.a(assert.o)
 .debug_frame   0x0000097c      0x200 /root/devel/optee/optee_os/out/arm/export-ta_arm32/lib/libutils.a(bget_malloc.o)
 .debug_frame   0x00000b7c       0x58 /root/devel/optee/optee_os/out/arm/export-ta_arm32/lib/libutils.a(snprintf.o)
 .debug_frame   0x00000bd4       0x28 /root/devel/optee/optee_os/out/arm/export-ta_arm32/lib/libutils.a(memcmp.o)
 .debug_frame   0x00000bfc       0x28 /root/devel/optee/optee_os/out/arm/export-ta_arm32/lib/libutils.a(memcpy.o)
 .debug_frame   0x00000c24       0x28 /root/devel/optee/optee_os/out/arm/export-ta_arm32/lib/libutils.a(memmove.o)
 .debug_frame   0x00000c4c       0x20 /root/devel/optee/optee_os/out/arm/export-ta_arm32/lib/libutils.a(memset.o)
 .debug_frame   0x00000c6c       0x20 /root/devel/optee/optee_os/out/arm/export-ta_arm32/lib/libutils.a(strlen.o)
 .debug_frame   0x00000c8c       0x84 /root/devel/optee/optee_os/out/arm/export-ta_arm32/lib/libutils.a(snprintk.o)
 .debug_frame   0x00000d10       0x28 /root/devel/optee/optee_os/out/arm/export-ta_arm32/lib/libutils.a(strlcpy.o)
 .debug_frame   0x00000d38       0xc4 /root/devel/optee/optee_os/out/arm/export-ta_arm32/lib/libutils.a(trace.o)
 .debug_frame   0x00000dfc       0x28 /root/devel/optee/optee_os/out/arm/export-ta_arm32/lib/libutils.a(memchr.o)
 .debug_frame   0x00000e24       0x58 /root/devel/optee/optee_os/out/arm/export-ta_arm32/lib/libutils.a(arm32_aeabi_ldivmod.o)
 .debug_frame   0x00000e7c       0xbc /root/devel/optee/optee_os/out/arm/export-ta_arm32/lib/libmpa.a(mpa_misc.o)
 .debug_frame   0x00000f38       0xe0 /root/devel/optee/optee_os/out/arm/export-ta_arm32/lib/libmpa.a(mpa_montgomery.o)
 .debug_frame   0x00001018       0x40 /root/devel/optee/optee_os/out/arm/export-ta_arm32/lib/libmpa.a(mpa_primetest.o)
 .debug_frame   0x00001058       0x50 /root/devel/optee/optee_os/out/arm/export-ta_arm32/lib/libmpa.a(mpa_conv.o)
 .debug_frame   0x000010a8       0xb4 /root/devel/optee/optee_os/out/arm/export-ta_arm32/lib/libmpa.a(mpa_div.o)
 .debug_frame   0x0000115c       0xd8 /root/devel/optee/optee_os/out/arm/export-ta_arm32/lib/libmpa.a(mpa_gcd.o)
 .debug_frame   0x00001234       0x80 /root/devel/optee/optee_os/out/arm/export-ta_arm32/lib/libmpa.a(mpa_mem_static.o)
 .debug_frame   0x000012b4       0xe0 /root/devel/optee/optee_os/out/arm/export-ta_arm32/lib/libmpa.a(mpa_mul.o)
 .debug_frame   0x00001394       0x4c /root/devel/optee/optee_os/out/arm/export-ta_arm32/lib/libmpa.a(mpa_random.o)
 .debug_frame   0x000013e0       0xac /root/devel/optee/optee_os/out/arm/export-ta_arm32/lib/libmpa.a(mpa_shift.o)
 .debug_frame   0x0000148c      0x198 /root/devel/optee/optee_os/out/arm/export-ta_arm32/lib/libmpa.a(mpa_addsub.o)
 .debug_frame   0x00001624       0x90 /root/devel/optee/optee_os/out/arm/export-ta_arm32/lib/libmpa.a(mpa_cmp.o)
 .debug_frame   0x000016b4       0x3c /root/devel/optee/optee_os/out/arm/export-ta_arm32/lib/libmpa.a(mpa_expmod.o)
 .debug_frame   0x000016f0       0x3c /root/devel/optee/optee_os/out/arm/export-ta_arm32/lib/libmpa.a(mpa_init.o)
 .debug_frame   0x0000172c       0xf8 /root/devel/optee/optee_os/out/arm/export-ta_arm32/lib/libmpa.a(mpa_io.o)
 .debug_frame   0x00001824       0xc8 /root/devel/optee/optee_os/out/arm/export-ta_arm32/lib/libmpa.a(mpa_modulus.o)

.debug_ranges   0x00000000      0x520
 .debug_ranges  0x00000000       0x90 /root/devel/optee/optee_os/out/arm/export-ta_arm32/lib/libutee.a(user_ta_entry.o)
 .debug_ranges  0x00000090       0xa8 /root/devel/optee/optee_os/out/arm/export-ta_arm32/lib/libutee.a(tee_api_arith.o)
 .debug_ranges  0x00000138       0x18 /root/devel/optee/optee_os/out/arm/export-ta_arm32/lib/libutee.a(tee_api.o)
 .debug_ranges  0x00000150       0x98 /root/devel/optee/optee_os/out/arm/export-ta_arm32/lib/libutee.a(tee_user_mem.o)
 .debug_ranges  0x000001e8      0x110 /root/devel/optee/optee_os/out/arm/export-ta_arm32/lib/libutils.a(bget_malloc.o)
 .debug_ranges  0x000002f8       0x38 /root/devel/optee/optee_os/out/arm/export-ta_arm32/lib/libutils.a(snprintk.o)
 .debug_ranges  0x00000330       0x48 /root/devel/optee/optee_os/out/arm/export-ta_arm32/lib/libutils.a(arm32_aeabi_ldivmod.o)
 .debug_ranges  0x00000378       0x18 /root/devel/optee/optee_os/out/arm/export-ta_arm32/lib/libmpa.a(mpa_montgomery.o)
 .debug_ranges  0x00000390       0x38 /root/devel/optee/optee_os/out/arm/export-ta_arm32/lib/libmpa.a(mpa_primetest.o)
 .debug_ranges  0x000003c8       0x18 /root/devel/optee/optee_os/out/arm/export-ta_arm32/lib/libmpa.a(mpa_div.o)
 .debug_ranges  0x000003e0       0x88 /root/devel/optee/optee_os/out/arm/export-ta_arm32/lib/libmpa.a(mpa_random.o)
 .debug_ranges  0x00000468       0x18 /root/devel/optee/optee_os/out/arm/export-ta_arm32/lib/libmpa.a(mpa_addsub.o)
 .debug_ranges  0x00000480       0xa0 /root/devel/optee/optee_os/out/arm/export-ta_arm32/lib/libmpa.a(mpa_io.o)
